TN:
SF:/usr/include/c++/7/bits/alloc_traits.h
FN:435,_ZNSt16allocator_traitsISaISt10_List_nodeIP5FieldEEE8allocateERS4_m
FN:461,_ZNSt16allocator_traitsISaISt10_List_nodeIP5FieldEEE10deallocateERS4_PS3_m
FN:474,_ZNSt16allocator_traitsISaISt10_List_nodeIP5FieldEEE9constructIS2_JRKS2_EEEvRS4_PT_DpOT0_
FN:486,_ZNSt16allocator_traitsISaISt10_List_nodeIP5FieldEEE7destroyIS2_EEvRS4_PT_
FNDA:0,_ZNSt16allocator_traitsISaISt10_List_nodeIP5FieldEEE8allocateERS4_m
FNDA:0,_ZNSt16allocator_traitsISaISt10_List_nodeIP5FieldEEE10deallocateERS4_PS3_m
FNDA:0,_ZNSt16allocator_traitsISaISt10_List_nodeIP5FieldEEE9constructIS2_JRKS2_EEEvRS4_PT_DpOT0_
FNDA:0,_ZNSt16allocator_traitsISaISt10_List_nodeIP5FieldEEE7destroyIS2_EEvRS4_PT_
FNF:4
FNH:0
DA:435,0
DA:436,0
DA:461,0
DA:462,0
DA:474,0
DA:475,0
DA:486,0
DA:487,0
LF:8
LH:0
end_of_record
SF:/usr/include/c++/7/bits/allocated_ptr.h
FN:52,_ZNSt15__allocated_ptrISaISt10_List_nodeIP5FieldEEEC2ERS4_PS3_
FN:70,_ZNSt15__allocated_ptrISaISt10_List_nodeIP5FieldEEED2Ev
FN:78,_ZNSt15__allocated_ptrISaISt10_List_nodeIP5FieldEEEaSEDn
FNDA:0,_ZNSt15__allocated_ptrISaISt10_List_nodeIP5FieldEEEC2ERS4_PS3_
FNDA:0,_ZNSt15__allocated_ptrISaISt10_List_nodeIP5FieldEEED2Ev
FNDA:0,_ZNSt15__allocated_ptrISaISt10_List_nodeIP5FieldEEEaSEDn
FNF:3
FNH:0
DA:52,0
DA:53,0
DA:54,0
DA:70,0
DA:72,0
DA:73,0
DA:74,0
DA:78,0
DA:80,0
DA:81,0
LF:10
LH:0
end_of_record
SF:/usr/include/c++/7/bits/allocator.h
FN:131,_ZNSaISt10_List_nodeIP5FieldEEC2Ev
FN:139,_ZNSaISt10_List_nodeIP5FieldEED2Ev
FNDA:0,_ZNSaISt10_List_nodeIP5FieldEEC2Ev
FNDA:0,_ZNSaISt10_List_nodeIP5FieldEED2Ev
FNF:2
FNH:0
DA:131,0
DA:139,0
LF:2
LH:0
end_of_record
SF:/usr/include/c++/7/bits/list.tcc
FN:65,_ZNSt7__cxx1110_List_baseIP5FieldSaIS2_EE8_M_clearEv
FNDA:0,_ZNSt7__cxx1110_List_baseIP5FieldSaIS2_EE8_M_clearEv
FNF:1
FNH:0
DA:65,0
DA:69,0
DA:70,0
DA:72,0
DA:73,0
DA:74,0
DA:76,0
DA:80,0
DA:82,0
LF:9
LH:0
end_of_record
SF:/usr/include/c++/7/bits/move.h
FN:47,_ZSt11__addressofISaISt10_List_nodeIP5FieldEEEPT_RS5_
FN:73,_ZSt7forwardIRKP5FieldEOT_RNSt16remove_referenceIS4_E4typeE
FNDA:0,_ZSt11__addressofISaISt10_List_nodeIP5FieldEEEPT_RS5_
FNDA:0,_ZSt7forwardIRKP5FieldEOT_RNSt16remove_referenceIS4_E4typeE
FNF:2
FNH:0
DA:47,0
DA:48,0
DA:73,0
DA:74,0
LF:4
LH:0
end_of_record
SF:/usr/include/c++/7/bits/stl_list.h
FN:113,_ZNSt10_List_nodeImE9_M_valptrEv
FN:113,_ZNSt10_List_nodeIP5FieldE9_M_valptrEv
FN:143,_ZNSt14_List_iteratorIP5FieldEC2EPNSt8__detail15_List_node_baseE
FN:152,_ZNKSt14_List_iteratorIP5FieldEdeEv
FN:160,_ZNSt14_List_iteratorIP5FieldEppEv
FN:194,_ZNKSt14_List_iteratorIP5FieldEneERKS2_
FN:323,_ZNSt7__cxx1110_List_baseIP5FieldSaIS2_EE10_List_implD2Ev
FN:332,_ZNSt7__cxx1110_List_baseIP5FieldSaIS2_EE10_List_implC2Ev
FN:352,_ZNSt7__cxx1110_List_baseIP5FieldSaIS2_EE11_M_set_sizeEm
FN:354,_ZNSt7__cxx1110_List_baseIP5FieldSaIS2_EE11_M_inc_sizeEm
FN:382,_ZNSt7__cxx1110_List_baseIP5FieldSaIS2_EE11_M_get_nodeEv
FN:386,_ZNSt7__cxx1110_List_baseIP5FieldSaIS2_EE11_M_put_nodeEPSt10_List_nodeIS2_E
FN:393,_ZNSt7__cxx1110_List_baseIP5FieldSaIS2_EE21_M_get_Node_allocatorEv
FN:400,_ZNSt7__cxx1110_List_baseIP5FieldSaIS2_EEC2Ev
FN:441,_ZNSt7__cxx1110_List_baseIP5FieldSaIS2_EED2Ev
FN:448,_ZNSt7__cxx1110_List_baseIP5FieldSaIS2_EE7_M_initEv
FN:570,_ZNSt7__cxx114listIP5FieldSaIS2_EE14_M_create_nodeIJRKS2_EEEPSt10_List_nodeIS2_EDpOT_
FN:589,_ZNSt7__cxx114listIP5FieldSaIS2_EEC2Ev
FN:733,_ZNSt7__cxx114listIP5FieldSaIS2_EED2Ev
FN:851,_ZNSt7__cxx114listIP5FieldSaIS2_EE5beginEv
FN:869,_ZNSt7__cxx114listIP5FieldSaIS2_EE3endEv
FN:1117,_ZNSt7__cxx114listIP5FieldSaIS2_EE9push_backERKS2_
FN:1799,_ZNSt7__cxx114listIP5FieldSaIS2_EE9_M_insertIJRKS2_EEEvSt14_List_iteratorIS2_EDpOT_
FNDA:0,_ZNSt10_List_nodeImE9_M_valptrEv
FNDA:0,_ZNSt10_List_nodeIP5FieldE9_M_valptrEv
FNDA:0,_ZNSt14_List_iteratorIP5FieldEC2EPNSt8__detail15_List_node_baseE
FNDA:0,_ZNKSt14_List_iteratorIP5FieldEdeEv
FNDA:0,_ZNSt14_List_iteratorIP5FieldEppEv
FNDA:0,_ZNKSt14_List_iteratorIP5FieldEneERKS2_
FNDA:0,_ZNSt7__cxx1110_List_baseIP5FieldSaIS2_EE10_List_implD2Ev
FNDA:0,_ZNSt7__cxx1110_List_baseIP5FieldSaIS2_EE10_List_implC2Ev
FNDA:0,_ZNSt7__cxx1110_List_baseIP5FieldSaIS2_EE11_M_set_sizeEm
FNDA:0,_ZNSt7__cxx1110_List_baseIP5FieldSaIS2_EE11_M_inc_sizeEm
FNDA:0,_ZNSt7__cxx1110_List_baseIP5FieldSaIS2_EE11_M_get_nodeEv
FNDA:0,_ZNSt7__cxx1110_List_baseIP5FieldSaIS2_EE11_M_put_nodeEPSt10_List_nodeIS2_E
FNDA:0,_ZNSt7__cxx1110_List_baseIP5FieldSaIS2_EE21_M_get_Node_allocatorEv
FNDA:0,_ZNSt7__cxx1110_List_baseIP5FieldSaIS2_EEC2Ev
FNDA:0,_ZNSt7__cxx1110_List_baseIP5FieldSaIS2_EED2Ev
FNDA:0,_ZNSt7__cxx1110_List_baseIP5FieldSaIS2_EE7_M_initEv
FNDA:0,_ZNSt7__cxx114listIP5FieldSaIS2_EE14_M_create_nodeIJRKS2_EEEPSt10_List_nodeIS2_EDpOT_
FNDA:0,_ZNSt7__cxx114listIP5FieldSaIS2_EEC2Ev
FNDA:0,_ZNSt7__cxx114listIP5FieldSaIS2_EED2Ev
FNDA:0,_ZNSt7__cxx114listIP5FieldSaIS2_EE5beginEv
FNDA:0,_ZNSt7__cxx114listIP5FieldSaIS2_EE3endEv
FNDA:0,_ZNSt7__cxx114listIP5FieldSaIS2_EE9push_backERKS2_
FNDA:0,_ZNSt7__cxx114listIP5FieldSaIS2_EE9_M_insertIJRKS2_EEEvSt14_List_iteratorIS2_EDpOT_
FNF:23
FNH:0
DA:113,0
DA:143,0
DA:144,0
DA:152,0
DA:153,0
DA:160,0
DA:162,0
DA:163,0
DA:194,0
DA:195,0
DA:323,0
DA:332,0
DA:333,0
DA:334,0
DA:352,0
DA:354,0
DA:382,0
DA:383,0
DA:386,0
DA:387,0
DA:393,0
DA:394,0
DA:400,0
DA:401,0
DA:402,0
DA:441,0
DA:442,0
DA:448,0
DA:450,0
DA:451,0
DA:452,0
DA:453,0
DA:570,0
DA:572,0
DA:573,0
DA:574,0
DA:575,0
DA:577,0
DA:578,0
DA:589,0
DA:593,0
DA:733,0
DA:851,0
DA:852,0
DA:869,0
DA:870,0
DA:1117,0
DA:1118,0
DA:1799,0
DA:1801,0
DA:1802,0
DA:1803,0
DA:1804,0
LF:53
LH:0
end_of_record
SF:/usr/include/c++/7/ext/aligned_buffer.h
FN:62,_ZN9__gnu_cxx16__aligned_membufIP5FieldE7_M_addrEv
FN:62,_ZN9__gnu_cxx16__aligned_membufImE7_M_addrEv
FN:70,_ZN9__gnu_cxx16__aligned_membufImE6_M_ptrEv
FN:70,_ZN9__gnu_cxx16__aligned_membufIP5FieldE6_M_ptrEv
FNDA:0,_ZN9__gnu_cxx16__aligned_membufImE7_M_addrEv
FNDA:0,_ZN9__gnu_cxx16__aligned_membufIP5FieldE7_M_addrEv
FNDA:0,_ZN9__gnu_cxx16__aligned_membufImE6_M_ptrEv
FNDA:0,_ZN9__gnu_cxx16__aligned_membufIP5FieldE6_M_ptrEv
FNF:4
FNH:0
DA:62,0
DA:63,0
DA:70,0
DA:71,0
LF:4
LH:0
end_of_record
SF:/usr/include/c++/7/ext/new_allocator.h
FN:79,_ZN9__gnu_cxx13new_allocatorISt10_List_nodeIP5FieldEEC2Ev
FN:86,_ZN9__gnu_cxx13new_allocatorISt10_List_nodeIP5FieldEED2Ev
FN:99,_ZN9__gnu_cxx13new_allocatorISt10_List_nodeIP5FieldEE8allocateEmPKv
FN:116,_ZN9__gnu_cxx13new_allocatorISt10_List_nodeIP5FieldEE10deallocateEPS4_m
FN:129,_ZNK9__gnu_cxx13new_allocatorISt10_List_nodeIP5FieldEE8max_sizeEv
FN:135,_ZN9__gnu_cxx13new_allocatorISt10_List_nodeIP5FieldEE9constructIS3_JRKS3_EEEvPT_DpOT0_
FN:140,_ZN9__gnu_cxx13new_allocatorISt10_List_nodeIP5FieldEE7destroyIS3_EEvPT_
FNDA:0,_ZN9__gnu_cxx13new_allocatorISt10_List_nodeIP5FieldEEC2Ev
FNDA:0,_ZN9__gnu_cxx13new_allocatorISt10_List_nodeIP5FieldEED2Ev
FNDA:0,_ZN9__gnu_cxx13new_allocatorISt10_List_nodeIP5FieldEE8allocateEmPKv
FNDA:0,_ZN9__gnu_cxx13new_allocatorISt10_List_nodeIP5FieldEE10deallocateEPS4_m
FNDA:0,_ZNK9__gnu_cxx13new_allocatorISt10_List_nodeIP5FieldEE8max_sizeEv
FNDA:0,_ZN9__gnu_cxx13new_allocatorISt10_List_nodeIP5FieldEE9constructIS3_JRKS3_EEEvPT_DpOT0_
FNDA:0,_ZN9__gnu_cxx13new_allocatorISt10_List_nodeIP5FieldEE7destroyIS3_EEvPT_
FNF:7
FNH:0
DA:79,0
DA:86,0
DA:99,0
DA:101,0
DA:102,0
DA:111,0
DA:116,0
DA:125,0
DA:126,0
DA:129,0
DA:130,0
DA:135,0
DA:136,0
DA:140,0
LF:14
LH:0
end_of_record
SF:/usr/include/c++/7/iostream
DA:74,1
LF:1
LH:1
end_of_record
SF:/usr/include/c++/7/new
FN:168,_ZnwmPv
FNDA:0,_ZnwmPv
FNF:1
FNH:0
DA:168,0
DA:169,0
LF:2
LH:0
end_of_record
SF:/home/mentathiel/Documents/Faks/IV/azrs/RGChess/RG136-chess/Bishop.cc
FN:5,_ZN6BishopC2E11PlayerColorii
FN:7,_ZN6BishopC2E11PlayerColorP5Field
FN:12,_ZN6Bishop16getPlayableMovesB5cxx11E10Chessboard
FN:96,_ZN6Bishop12checkIfLegalE5Field10Chessboard
FN:115,_ZN6Bishop10movedPieceE11PlayerColorP5Field
FN:122,_ZNK6Bishop8toStringB5cxx11Ev
FN:130,_ZN6Bishop7displayEii
FN:151,_GLOBAL__sub_I__ZN6BishopC2E11PlayerColorii
FN:151,_Z41__static_initialization_and_destruction_0ii
FNDA:4,_ZN6BishopC2E11PlayerColorii
FNDA:4,_ZN6BishopC2E11PlayerColorP5Field
FNDA:60,_ZN6Bishop16getPlayableMovesB5cxx11E10Chessboard
FNDA:8,_ZN6Bishop12checkIfLegalE5Field10Chessboard
FNDA:4,_ZN6Bishop10movedPieceE11PlayerColorP5Field
FNDA:0,_ZNK6Bishop8toStringB5cxx11Ev
FNDA:704,_ZN6Bishop7displayEii
FNDA:1,_GLOBAL__sub_I__ZN6BishopC2E11PlayerColorii
FNDA:1,_Z41__static_initialization_and_destruction_0ii
FNF:9
FNH:8
DA:5,4
DA:7,4
DA:12,60
DA:15,60
DA:27,60
DA:28,60
DA:29,60
DA:30,60
DA:33,480
DA:35,420
DA:36,89
DA:37,89
DA:38,28
DA:39,28
DA:41,61
DA:42,0
DA:43,0
DA:46,61
DA:49,420
DA:50,67
DA:51,67
DA:52,13
DA:53,13
DA:55,54
DA:56,3
DA:57,3
DA:60,51
DA:63,420
DA:64,69
DA:65,69
DA:66,19
DA:67,19
DA:69,50
DA:70,9
DA:71,9
DA:74,41
DA:77,420
DA:78,51
DA:79,51
DA:80,31
DA:81,31
DA:83,20
DA:84,0
DA:85,0
DA:88,20
DA:92,60
DA:96,8
DA:101,16
DA:102,8
DA:103,53
DA:104,45
DA:105,4
DA:107,45
DA:109,16
DA:115,4
DA:116,4
DA:122,0
DA:123,0
DA:124,0
DA:130,704
DA:131,704
DA:132,704
DA:133,704
DA:134,352
DA:137,352
DA:140,704
DA:141,704
DA:142,704
DA:143,704
DA:144,704
DA:145,704
DA:146,704
DA:147,704
DA:148,704
DA:149,704
DA:150,704
DA:151,707
LF:77
LH:70
end_of_record
SF:/usr/include/c++/7/ext/aligned_buffer.h
DA:62,0
DA:63,0
DA:70,0
DA:71,0
LF:4
LH:0
end_of_record
SF:/usr/include/c++/7/bits/alloc_traits.h
DA:435,13
DA:436,13
DA:461,0
DA:462,0
DA:474,13
DA:475,13
DA:486,0
DA:487,0
LF:8
LH:4
end_of_record
SF:/usr/include/c++/7/bits/allocated_ptr.h
DA:52,13
DA:53,13
DA:54,13
DA:70,13
DA:72,13
DA:73,0
DA:74,13
DA:78,13
DA:80,13
DA:81,13
LF:10
LH:9
end_of_record
SF:/usr/include/c++/7/bits/allocator.h
DA:131,1
DA:139,0
LF:2
LH:1
end_of_record
SF:/home/mentathiel/Documents/Faks/IV/azrs/RGChess/RG136-chess/chess.hpp
FN:105,_ZN5FieldC2Eii
FN:184,_ZN10ChessboardC2ERKS_
FNDA:0,_ZN5FieldC2Eii
FNDA:0,_ZN10ChessboardC2ERKS_
FNF:2
FNH:0
DA:105,0
DA:184,0
LF:2
LH:0
end_of_record
SF:/usr/include/c++/7/iostream
DA:74,1
LF:1
LH:1
end_of_record
SF:/usr/include/c++/7/bits/list.tcc
DA:65,0
DA:69,0
DA:70,0
DA:72,0
DA:73,0
DA:74,0
DA:76,0
DA:80,0
DA:82,0
LF:9
LH:0
end_of_record
SF:/usr/include/c++/7/bits/move.h
DA:47,13
DA:48,13
DA:73,52
DA:74,52
DA:98,0
DA:99,0
LF:6
LH:4
end_of_record
SF:/usr/include/c++/7/new
DA:168,0
DA:169,0
LF:2
LH:0
end_of_record
SF:/usr/include/c++/7/ext/new_allocator.h
DA:79,1
DA:86,0
DA:99,13
DA:101,13
DA:102,0
DA:111,13
DA:116,0
DA:125,0
DA:126,0
DA:129,13
DA:130,13
DA:135,13
DA:136,13
DA:140,0
LF:14
LH:8
end_of_record
SF:/usr/include/c++/7/bits/stl_list.h
DA:113,0
DA:143,13
DA:144,13
DA:152,0
DA:153,0
DA:160,0
DA:162,0
DA:163,0
DA:175,0
DA:177,0
DA:178,0
DA:194,0
DA:195,0
DA:323,0
DA:332,1
DA:333,1
DA:334,1
DA:352,1
DA:354,13
DA:356,0
DA:382,13
DA:383,13
DA:386,0
DA:387,0
DA:393,0
DA:394,0
DA:400,1
DA:401,1
DA:402,1
DA:441,0
DA:442,0
DA:448,1
DA:450,1
DA:451,1
DA:452,1
DA:453,1
DA:570,13
DA:572,13
DA:573,13
DA:574,26
DA:575,13
DA:577,13
DA:578,26
DA:589,1
DA:593,1
DA:733,0
DA:851,0
DA:852,0
DA:869,13
DA:870,13
DA:961,17
DA:962,17
DA:1036,0
DA:1038,0
DA:1039,0
DA:1040,0
DA:1117,13
DA:1118,13
DA:1122,0
DA:1123,0
DA:1152,0
DA:1153,0
DA:1799,13
DA:1801,13
DA:1802,13
DA:1803,13
DA:1804,13
DA:1809,0
DA:1811,0
DA:1812,0
DA:1813,0
DA:1815,0
DA:1820,0
DA:1821,0
LF:74
LH:37
end_of_record
TN:
SF:/usr/include/c++/7/bits/alloc_traits.h
FN:435,_ZNSt16allocator_traitsISaISt10_List_nodeIP5FieldEEE8allocateERS4_m
FN:461,_ZNSt16allocator_traitsISaISt10_List_nodeIP5FieldEEE10deallocateERS4_PS3_m
FN:474,_ZNSt16allocator_traitsISaISt10_List_nodeIP5FieldEEE9constructIS2_JRKS2_EEEvRS4_PT_DpOT0_
FN:486,_ZNSt16allocator_traitsISaISt10_List_nodeIP5FieldEEE7destroyIS2_EEvRS4_PT_
FNDA:0,_ZNSt16allocator_traitsISaISt10_List_nodeIP5FieldEEE8allocateERS4_m
FNDA:0,_ZNSt16allocator_traitsISaISt10_List_nodeIP5FieldEEE10deallocateERS4_PS3_m
FNDA:0,_ZNSt16allocator_traitsISaISt10_List_nodeIP5FieldEEE9constructIS2_JRKS2_EEEvRS4_PT_DpOT0_
FNDA:0,_ZNSt16allocator_traitsISaISt10_List_nodeIP5FieldEEE7destroyIS2_EEvRS4_PT_
FNF:4
FNH:0
DA:435,0
DA:436,0
DA:461,0
DA:462,0
DA:474,0
DA:475,0
DA:486,0
DA:487,0
LF:8
LH:0
end_of_record
SF:/usr/include/c++/7/bits/allocated_ptr.h
FN:52,_ZNSt15__allocated_ptrISaISt10_List_nodeIP5FieldEEEC2ERS4_PS3_
FN:70,_ZNSt15__allocated_ptrISaISt10_List_nodeIP5FieldEEED2Ev
FN:78,_ZNSt15__allocated_ptrISaISt10_List_nodeIP5FieldEEEaSEDn
FNDA:0,_ZNSt15__allocated_ptrISaISt10_List_nodeIP5FieldEEEC2ERS4_PS3_
FNDA:0,_ZNSt15__allocated_ptrISaISt10_List_nodeIP5FieldEEED2Ev
FNDA:0,_ZNSt15__allocated_ptrISaISt10_List_nodeIP5FieldEEEaSEDn
FNF:3
FNH:0
DA:52,0
DA:53,0
DA:54,0
DA:70,0
DA:72,0
DA:73,0
DA:74,0
DA:78,0
DA:80,0
DA:81,0
LF:10
LH:0
end_of_record
SF:/usr/include/c++/7/bits/allocator.h
FN:131,_ZNSaISt10_List_nodeIP5FieldEEC2Ev
FN:139,_ZNSaISt10_List_nodeIP5FieldEED2Ev
FNDA:0,_ZNSaISt10_List_nodeIP5FieldEEC2Ev
FNDA:0,_ZNSaISt10_List_nodeIP5FieldEED2Ev
FNF:2
FNH:0
DA:131,0
DA:139,0
LF:2
LH:0
end_of_record
SF:/usr/include/c++/7/bits/list.tcc
FN:65,_ZNSt7__cxx1110_List_baseIP5FieldSaIS2_EE8_M_clearEv
FNDA:0,_ZNSt7__cxx1110_List_baseIP5FieldSaIS2_EE8_M_clearEv
FNF:1
FNH:0
DA:65,0
DA:69,0
DA:70,0
DA:72,0
DA:73,0
DA:74,0
DA:76,0
DA:80,0
DA:82,0
LF:9
LH:0
end_of_record
SF:/usr/include/c++/7/bits/move.h
FN:47,_ZSt11__addressofISaISt10_List_nodeIP5FieldEEEPT_RS5_
FN:73,_ZSt7forwardIRKP5FieldEOT_RNSt16remove_referenceIS4_E4typeE
FNDA:0,_ZSt11__addressofISaISt10_List_nodeIP5FieldEEEPT_RS5_
FNDA:0,_ZSt7forwardIRKP5FieldEOT_RNSt16remove_referenceIS4_E4typeE
FNF:2
FNH:0
DA:47,0
DA:48,0
DA:73,0
DA:74,0
LF:4
LH:0
end_of_record
SF:/usr/include/c++/7/bits/stl_list.h
FN:113,_ZNSt10_List_nodeIP5FieldE9_M_valptrEv
FN:113,_ZNSt10_List_nodeImE9_M_valptrEv
FN:143,_ZNSt14_List_iteratorIP5FieldEC2EPNSt8__detail15_List_node_baseE
FN:323,_ZNSt7__cxx1110_List_baseIP5FieldSaIS2_EE10_List_implD2Ev
FN:332,_ZNSt7__cxx1110_List_baseIP5FieldSaIS2_EE10_List_implC2Ev
FN:352,_ZNSt7__cxx1110_List_baseIP5FieldSaIS2_EE11_M_set_sizeEm
FN:354,_ZNSt7__cxx1110_List_baseIP5FieldSaIS2_EE11_M_inc_sizeEm
FN:382,_ZNSt7__cxx1110_List_baseIP5FieldSaIS2_EE11_M_get_nodeEv
FN:386,_ZNSt7__cxx1110_List_baseIP5FieldSaIS2_EE11_M_put_nodeEPSt10_List_nodeIS2_E
FN:393,_ZNSt7__cxx1110_List_baseIP5FieldSaIS2_EE21_M_get_Node_allocatorEv
FN:400,_ZNSt7__cxx1110_List_baseIP5FieldSaIS2_EEC2Ev
FN:441,_ZNSt7__cxx1110_List_baseIP5FieldSaIS2_EED2Ev
FN:448,_ZNSt7__cxx1110_List_baseIP5FieldSaIS2_EE7_M_initEv
FN:570,_ZNSt7__cxx114listIP5FieldSaIS2_EE14_M_create_nodeIJRKS2_EEEPSt10_List_nodeIS2_EDpOT_
FN:589,_ZNSt7__cxx114listIP5FieldSaIS2_EEC2Ev
FN:733,_ZNSt7__cxx114listIP5FieldSaIS2_EED2Ev
FN:869,_ZNSt7__cxx114listIP5FieldSaIS2_EE3endEv
FN:1117,_ZNSt7__cxx114listIP5FieldSaIS2_EE9push_backERKS2_
FN:1799,_ZNSt7__cxx114listIP5FieldSaIS2_EE9_M_insertIJRKS2_EEEvSt14_List_iteratorIS2_EDpOT_
FNDA:0,_ZNSt10_List_nodeImE9_M_valptrEv
FNDA:0,_ZNSt10_List_nodeIP5FieldE9_M_valptrEv
FNDA:0,_ZNSt14_List_iteratorIP5FieldEC2EPNSt8__detail15_List_node_baseE
FNDA:0,_ZNSt7__cxx1110_List_baseIP5FieldSaIS2_EE10_List_implD2Ev
FNDA:0,_ZNSt7__cxx1110_List_baseIP5FieldSaIS2_EE10_List_implC2Ev
FNDA:0,_ZNSt7__cxx1110_List_baseIP5FieldSaIS2_EE11_M_set_sizeEm
FNDA:0,_ZNSt7__cxx1110_List_baseIP5FieldSaIS2_EE11_M_inc_sizeEm
FNDA:0,_ZNSt7__cxx1110_List_baseIP5FieldSaIS2_EE11_M_get_nodeEv
FNDA:0,_ZNSt7__cxx1110_List_baseIP5FieldSaIS2_EE11_M_put_nodeEPSt10_List_nodeIS2_E
FNDA:0,_ZNSt7__cxx1110_List_baseIP5FieldSaIS2_EE21_M_get_Node_allocatorEv
FNDA:0,_ZNSt7__cxx1110_List_baseIP5FieldSaIS2_EEC2Ev
FNDA:0,_ZNSt7__cxx1110_List_baseIP5FieldSaIS2_EED2Ev
FNDA:0,_ZNSt7__cxx1110_List_baseIP5FieldSaIS2_EE7_M_initEv
FNDA:0,_ZNSt7__cxx114listIP5FieldSaIS2_EE14_M_create_nodeIJRKS2_EEEPSt10_List_nodeIS2_EDpOT_
FNDA:0,_ZNSt7__cxx114listIP5FieldSaIS2_EEC2Ev
FNDA:0,_ZNSt7__cxx114listIP5FieldSaIS2_EED2Ev
FNDA:0,_ZNSt7__cxx114listIP5FieldSaIS2_EE3endEv
FNDA:0,_ZNSt7__cxx114listIP5FieldSaIS2_EE9push_backERKS2_
FNDA:0,_ZNSt7__cxx114listIP5FieldSaIS2_EE9_M_insertIJRKS2_EEEvSt14_List_iteratorIS2_EDpOT_
FNF:19
FNH:0
DA:113,0
DA:143,0
DA:144,0
DA:323,0
DA:332,0
DA:333,0
DA:334,0
DA:352,0
DA:354,0
DA:382,0
DA:383,0
DA:386,0
DA:387,0
DA:393,0
DA:394,0
DA:400,0
DA:401,0
DA:402,0
DA:441,0
DA:442,0
DA:448,0
DA:450,0
DA:451,0
DA:452,0
DA:453,0
DA:570,0
DA:572,0
DA:573,0
DA:574,0
DA:575,0
DA:577,0
DA:578,0
DA:589,0
DA:593,0
DA:733,0
DA:869,0
DA:870,0
DA:1117,0
DA:1118,0
DA:1799,0
DA:1801,0
DA:1802,0
DA:1803,0
DA:1804,0
LF:44
LH:0
end_of_record
SF:/usr/include/c++/7/ext/aligned_buffer.h
FN:62,_ZN9__gnu_cxx16__aligned_membufIP5FieldE7_M_addrEv
FN:62,_ZN9__gnu_cxx16__aligned_membufImE7_M_addrEv
FN:70,_ZN9__gnu_cxx16__aligned_membufImE6_M_ptrEv
FN:70,_ZN9__gnu_cxx16__aligned_membufIP5FieldE6_M_ptrEv
FNDA:0,_ZN9__gnu_cxx16__aligned_membufImE7_M_addrEv
FNDA:0,_ZN9__gnu_cxx16__aligned_membufIP5FieldE7_M_addrEv
FNDA:0,_ZN9__gnu_cxx16__aligned_membufImE6_M_ptrEv
FNDA:0,_ZN9__gnu_cxx16__aligned_membufIP5FieldE6_M_ptrEv
FNF:4
FNH:0
DA:62,0
DA:63,0
DA:70,0
DA:71,0
LF:4
LH:0
end_of_record
SF:/usr/include/c++/7/ext/new_allocator.h
FN:79,_ZN9__gnu_cxx13new_allocatorISt10_List_nodeIP5FieldEEC2Ev
FN:86,_ZN9__gnu_cxx13new_allocatorISt10_List_nodeIP5FieldEED2Ev
FN:99,_ZN9__gnu_cxx13new_allocatorISt10_List_nodeIP5FieldEE8allocateEmPKv
FN:116,_ZN9__gnu_cxx13new_allocatorISt10_List_nodeIP5FieldEE10deallocateEPS4_m
FN:129,_ZNK9__gnu_cxx13new_allocatorISt10_List_nodeIP5FieldEE8max_sizeEv
FN:135,_ZN9__gnu_cxx13new_allocatorISt10_List_nodeIP5FieldEE9constructIS3_JRKS3_EEEvPT_DpOT0_
FN:140,_ZN9__gnu_cxx13new_allocatorISt10_List_nodeIP5FieldEE7destroyIS3_EEvPT_
FNDA:0,_ZN9__gnu_cxx13new_allocatorISt10_List_nodeIP5FieldEEC2Ev
FNDA:0,_ZN9__gnu_cxx13new_allocatorISt10_List_nodeIP5FieldEED2Ev
FNDA:0,_ZN9__gnu_cxx13new_allocatorISt10_List_nodeIP5FieldEE8allocateEmPKv
FNDA:0,_ZN9__gnu_cxx13new_allocatorISt10_List_nodeIP5FieldEE10deallocateEPS4_m
FNDA:0,_ZNK9__gnu_cxx13new_allocatorISt10_List_nodeIP5FieldEE8max_sizeEv
FNDA:0,_ZN9__gnu_cxx13new_allocatorISt10_List_nodeIP5FieldEE9constructIS3_JRKS3_EEEvPT_DpOT0_
FNDA:0,_ZN9__gnu_cxx13new_allocatorISt10_List_nodeIP5FieldEE7destroyIS3_EEvPT_
FNF:7
FNH:0
DA:79,0
DA:86,0
DA:99,0
DA:101,0
DA:102,0
DA:111,0
DA:116,0
DA:125,0
DA:126,0
DA:129,0
DA:130,0
DA:135,0
DA:136,0
DA:140,0
LF:14
LH:0
end_of_record
SF:/usr/include/c++/7/iostream
DA:74,1
LF:1
LH:1
end_of_record
SF:/usr/include/c++/7/new
FN:168,_ZnwmPv
FNDA:0,_ZnwmPv
FNF:1
FNH:0
DA:168,0
DA:169,0
LF:2
LH:0
end_of_record
SF:/home/mentathiel/Documents/Faks/IV/azrs/RGChess/RG136-chess/Knight.cc
FN:5,_ZN6KnightC2E11PlayerColorii
FN:7,_ZN6KnightC2E11PlayerColorP5Field
FN:11,_ZN6Knight16getPlayableMovesB5cxx11E10Chessboard
FN:27,_ZN6Knight12checkIfLegalE5Field10Chessboard
FN:42,_ZN6Knight10movedPieceE11PlayerColorP5Field
FN:49,_ZNK6Knight8toStringB5cxx11Ev
FN:57,_ZN6Knight7displayEii
FN:80,_GLOBAL__sub_I__ZN6KnightC2E11PlayerColorii
FN:80,_Z41__static_initialization_and_destruction_0ii
FNDA:4,_ZN6KnightC2E11PlayerColorii
FNDA:4,_ZN6KnightC2E11PlayerColorP5Field
FNDA:52,_ZN6Knight16getPlayableMovesB5cxx11E10Chessboard
FNDA:3332,_ZN6Knight12checkIfLegalE5Field10Chessboard
FNDA:4,_ZN6Knight10movedPieceE11PlayerColorP5Field
FNDA:0,_ZNK6Knight8toStringB5cxx11Ev
FNDA:704,_ZN6Knight7displayEii
FNDA:1,_GLOBAL__sub_I__ZN6KnightC2E11PlayerColorii
FNDA:1,_Z41__static_initialization_and_destruction_0ii
FNF:9
FNH:8
DA:5,4
DA:7,4
DA:11,52
DA:13,52
DA:15,468
DA:16,3744
DA:17,3328
DA:18,3328
DA:19,237
DA:21,3091
DA:24,52
DA:27,3332
DA:29,3332
DA:30,3332
DA:31,4068
DA:32,3692
DA:33,241
DA:35,3091
DA:42,4
DA:43,4
DA:49,0
DA:50,0
DA:51,0
DA:57,704
DA:58,704
DA:59,704
DA:60,704
DA:61,352
DA:64,352
DA:67,704
DA:68,704
DA:69,704
DA:70,704
DA:71,704
DA:72,704
DA:73,704
DA:74,704
DA:75,704
DA:76,704
DA:77,704
DA:78,704
DA:79,704
DA:80,707
LF:43
LH:40
end_of_record
SF:/home/mentathiel/Documents/Faks/IV/azrs/RGChess/RG136-chess/chess.hpp
FN:105,_ZN5FieldC2Eii
FN:184,_ZN10ChessboardC2ERKS_
FNDA:0,_ZN5FieldC2Eii
FNDA:0,_ZN10ChessboardC2ERKS_
FNF:2
FNH:0
DA:105,0
DA:184,0
LF:2
LH:0
end_of_record
TN:
SF:/usr/include/c++/7/bits/alloc_traits.h
FN:435,_ZNSt16allocator_traitsISaISt10_List_nodeIP5FieldEEE8allocateERS4_m
FN:461,_ZNSt16allocator_traitsISaISt10_List_nodeIP5FieldEEE10deallocateERS4_PS3_m
FN:474,_ZNSt16allocator_traitsISaISt10_List_nodeIP5FieldEEE9constructIS2_JRKS2_EEEvRS4_PT_DpOT0_
FN:486,_ZNSt16allocator_traitsISaISt10_List_nodeIP5FieldEEE7destroyIS2_EEvRS4_PT_
FNDA:0,_ZNSt16allocator_traitsISaISt10_List_nodeIP5FieldEEE8allocateERS4_m
FNDA:0,_ZNSt16allocator_traitsISaISt10_List_nodeIP5FieldEEE10deallocateERS4_PS3_m
FNDA:0,_ZNSt16allocator_traitsISaISt10_List_nodeIP5FieldEEE9constructIS2_JRKS2_EEEvRS4_PT_DpOT0_
FNDA:0,_ZNSt16allocator_traitsISaISt10_List_nodeIP5FieldEEE7destroyIS2_EEvRS4_PT_
FNF:4
FNH:0
DA:435,0
DA:436,0
DA:461,0
DA:462,0
DA:474,0
DA:475,0
DA:486,0
DA:487,0
LF:8
LH:0
end_of_record
SF:/usr/include/c++/7/bits/allocated_ptr.h
FN:52,_ZNSt15__allocated_ptrISaISt10_List_nodeIP5FieldEEEC2ERS4_PS3_
FN:70,_ZNSt15__allocated_ptrISaISt10_List_nodeIP5FieldEEED2Ev
FN:78,_ZNSt15__allocated_ptrISaISt10_List_nodeIP5FieldEEEaSEDn
FNDA:0,_ZNSt15__allocated_ptrISaISt10_List_nodeIP5FieldEEEC2ERS4_PS3_
FNDA:0,_ZNSt15__allocated_ptrISaISt10_List_nodeIP5FieldEEED2Ev
FNDA:0,_ZNSt15__allocated_ptrISaISt10_List_nodeIP5FieldEEEaSEDn
FNF:3
FNH:0
DA:52,0
DA:53,0
DA:54,0
DA:70,0
DA:72,0
DA:73,0
DA:74,0
DA:78,0
DA:80,0
DA:81,0
LF:10
LH:0
end_of_record
SF:/usr/include/c++/7/bits/allocator.h
FN:131,_ZNSaISt10_List_nodeIP5FieldEEC2Ev
FN:139,_ZNSaISt10_List_nodeIP5FieldEED2Ev
FNDA:0,_ZNSaISt10_List_nodeIP5FieldEEC2Ev
FNDA:0,_ZNSaISt10_List_nodeIP5FieldEED2Ev
FNF:2
FNH:0
DA:131,0
DA:139,0
LF:2
LH:0
end_of_record
SF:/usr/include/c++/7/bits/list.tcc
FN:65,_ZNSt7__cxx1110_List_baseIP5FieldSaIS2_EE8_M_clearEv
FNDA:0,_ZNSt7__cxx1110_List_baseIP5FieldSaIS2_EE8_M_clearEv
FNF:1
FNH:0
DA:65,0
DA:69,0
DA:70,0
DA:72,0
DA:73,0
DA:74,0
DA:76,0
DA:80,0
DA:82,0
LF:9
LH:0
end_of_record
SF:/usr/include/c++/7/bits/move.h
FN:47,_ZSt11__addressofISaISt10_List_nodeIP5FieldEEEPT_RS5_
FN:73,_ZSt7forwardIRKP5FieldEOT_RNSt16remove_referenceIS4_E4typeE
FNDA:0,_ZSt11__addressofISaISt10_List_nodeIP5FieldEEEPT_RS5_
FNDA:0,_ZSt7forwardIRKP5FieldEOT_RNSt16remove_referenceIS4_E4typeE
FNF:2
FNH:0
DA:47,0
DA:48,0
DA:73,0
DA:74,0
LF:4
LH:0
end_of_record
SF:/usr/include/c++/7/bits/stl_list.h
FN:113,_ZNSt10_List_nodeImE9_M_valptrEv
FN:113,_ZNSt10_List_nodeIP5FieldE9_M_valptrEv
FN:143,_ZNSt14_List_iteratorIP5FieldEC2EPNSt8__detail15_List_node_baseE
FN:152,_ZNKSt14_List_iteratorIP5FieldEdeEv
FN:160,_ZNSt14_List_iteratorIP5FieldEppEv
FN:194,_ZNKSt14_List_iteratorIP5FieldEneERKS2_
FN:323,_ZNSt7__cxx1110_List_baseIP5FieldSaIS2_EE10_List_implD2Ev
FN:332,_ZNSt7__cxx1110_List_baseIP5FieldSaIS2_EE10_List_implC2Ev
FN:352,_ZNSt7__cxx1110_List_baseIP5FieldSaIS2_EE11_M_set_sizeEm
FN:354,_ZNSt7__cxx1110_List_baseIP5FieldSaIS2_EE11_M_inc_sizeEm
FN:382,_ZNSt7__cxx1110_List_baseIP5FieldSaIS2_EE11_M_get_nodeEv
FN:386,_ZNSt7__cxx1110_List_baseIP5FieldSaIS2_EE11_M_put_nodeEPSt10_List_nodeIS2_E
FN:393,_ZNSt7__cxx1110_List_baseIP5FieldSaIS2_EE21_M_get_Node_allocatorEv
FN:400,_ZNSt7__cxx1110_List_baseIP5FieldSaIS2_EEC2Ev
FN:441,_ZNSt7__cxx1110_List_baseIP5FieldSaIS2_EED2Ev
FN:448,_ZNSt7__cxx1110_List_baseIP5FieldSaIS2_EE7_M_initEv
FN:570,_ZNSt7__cxx114listIP5FieldSaIS2_EE14_M_create_nodeIJRKS2_EEEPSt10_List_nodeIS2_EDpOT_
FN:589,_ZNSt7__cxx114listIP5FieldSaIS2_EEC2Ev
FN:733,_ZNSt7__cxx114listIP5FieldSaIS2_EED2Ev
FN:851,_ZNSt7__cxx114listIP5FieldSaIS2_EE5beginEv
FN:869,_ZNSt7__cxx114listIP5FieldSaIS2_EE3endEv
FN:1117,_ZNSt7__cxx114listIP5FieldSaIS2_EE9push_backERKS2_
FN:1799,_ZNSt7__cxx114listIP5FieldSaIS2_EE9_M_insertIJRKS2_EEEvSt14_List_iteratorIS2_EDpOT_
FNDA:0,_ZNSt10_List_nodeImE9_M_valptrEv
FNDA:0,_ZNSt10_List_nodeIP5FieldE9_M_valptrEv
FNDA:0,_ZNSt14_List_iteratorIP5FieldEC2EPNSt8__detail15_List_node_baseE
FNDA:0,_ZNKSt14_List_iteratorIP5FieldEdeEv
FNDA:0,_ZNSt14_List_iteratorIP5FieldEppEv
FNDA:0,_ZNKSt14_List_iteratorIP5FieldEneERKS2_
FNDA:0,_ZNSt7__cxx1110_List_baseIP5FieldSaIS2_EE10_List_implD2Ev
FNDA:0,_ZNSt7__cxx1110_List_baseIP5FieldSaIS2_EE10_List_implC2Ev
FNDA:0,_ZNSt7__cxx1110_List_baseIP5FieldSaIS2_EE11_M_set_sizeEm
FNDA:0,_ZNSt7__cxx1110_List_baseIP5FieldSaIS2_EE11_M_inc_sizeEm
FNDA:0,_ZNSt7__cxx1110_List_baseIP5FieldSaIS2_EE11_M_get_nodeEv
FNDA:0,_ZNSt7__cxx1110_List_baseIP5FieldSaIS2_EE11_M_put_nodeEPSt10_List_nodeIS2_E
FNDA:0,_ZNSt7__cxx1110_List_baseIP5FieldSaIS2_EE21_M_get_Node_allocatorEv
FNDA:0,_ZNSt7__cxx1110_List_baseIP5FieldSaIS2_EEC2Ev
FNDA:0,_ZNSt7__cxx1110_List_baseIP5FieldSaIS2_EED2Ev
FNDA:0,_ZNSt7__cxx1110_List_baseIP5FieldSaIS2_EE7_M_initEv
FNDA:0,_ZNSt7__cxx114listIP5FieldSaIS2_EE14_M_create_nodeIJRKS2_EEEPSt10_List_nodeIS2_EDpOT_
FNDA:0,_ZNSt7__cxx114listIP5FieldSaIS2_EEC2Ev
FNDA:0,_ZNSt7__cxx114listIP5FieldSaIS2_EED2Ev
FNDA:0,_ZNSt7__cxx114listIP5FieldSaIS2_EE5beginEv
FNDA:0,_ZNSt7__cxx114listIP5FieldSaIS2_EE3endEv
FNDA:0,_ZNSt7__cxx114listIP5FieldSaIS2_EE9push_backERKS2_
FNDA:0,_ZNSt7__cxx114listIP5FieldSaIS2_EE9_M_insertIJRKS2_EEEvSt14_List_iteratorIS2_EDpOT_
FNF:23
FNH:0
DA:113,0
DA:143,0
DA:144,0
DA:152,0
DA:153,0
DA:160,0
DA:162,0
DA:163,0
DA:194,0
DA:195,0
DA:323,0
DA:332,0
DA:333,0
DA:334,0
DA:352,0
DA:354,0
DA:382,0
DA:383,0
DA:386,0
DA:387,0
DA:393,0
DA:394,0
DA:400,0
DA:401,0
DA:402,0
DA:441,0
DA:442,0
DA:448,0
DA:450,0
DA:451,0
DA:452,0
DA:453,0
DA:570,0
DA:572,0
DA:573,0
DA:574,0
DA:575,0
DA:577,0
DA:578,0
DA:589,0
DA:593,0
DA:733,0
DA:851,0
DA:852,0
DA:869,0
DA:870,0
DA:1117,0
DA:1118,0
DA:1799,0
DA:1801,0
DA:1802,0
DA:1803,0
DA:1804,0
LF:53
LH:0
end_of_record
SF:/usr/include/c++/7/ext/aligned_buffer.h
FN:62,_ZN9__gnu_cxx16__aligned_membufIP5FieldE7_M_addrEv
FN:62,_ZN9__gnu_cxx16__aligned_membufImE7_M_addrEv
FN:70,_ZN9__gnu_cxx16__aligned_membufImE6_M_ptrEv
FN:70,_ZN9__gnu_cxx16__aligned_membufIP5FieldE6_M_ptrEv
FNDA:0,_ZN9__gnu_cxx16__aligned_membufImE7_M_addrEv
FNDA:0,_ZN9__gnu_cxx16__aligned_membufIP5FieldE7_M_addrEv
FNDA:0,_ZN9__gnu_cxx16__aligned_membufImE6_M_ptrEv
FNDA:0,_ZN9__gnu_cxx16__aligned_membufIP5FieldE6_M_ptrEv
FNF:4
FNH:0
DA:62,0
DA:63,0
DA:70,0
DA:71,0
LF:4
LH:0
end_of_record
SF:/usr/include/c++/7/ext/new_allocator.h
FN:79,_ZN9__gnu_cxx13new_allocatorISt10_List_nodeIP5FieldEEC2Ev
FN:86,_ZN9__gnu_cxx13new_allocatorISt10_List_nodeIP5FieldEED2Ev
FN:99,_ZN9__gnu_cxx13new_allocatorISt10_List_nodeIP5FieldEE8allocateEmPKv
FN:116,_ZN9__gnu_cxx13new_allocatorISt10_List_nodeIP5FieldEE10deallocateEPS4_m
FN:129,_ZNK9__gnu_cxx13new_allocatorISt10_List_nodeIP5FieldEE8max_sizeEv
FN:135,_ZN9__gnu_cxx13new_allocatorISt10_List_nodeIP5FieldEE9constructIS3_JRKS3_EEEvPT_DpOT0_
FN:140,_ZN9__gnu_cxx13new_allocatorISt10_List_nodeIP5FieldEE7destroyIS3_EEvPT_
FNDA:0,_ZN9__gnu_cxx13new_allocatorISt10_List_nodeIP5FieldEEC2Ev
FNDA:0,_ZN9__gnu_cxx13new_allocatorISt10_List_nodeIP5FieldEED2Ev
FNDA:0,_ZN9__gnu_cxx13new_allocatorISt10_List_nodeIP5FieldEE8allocateEmPKv
FNDA:0,_ZN9__gnu_cxx13new_allocatorISt10_List_nodeIP5FieldEE10deallocateEPS4_m
FNDA:0,_ZNK9__gnu_cxx13new_allocatorISt10_List_nodeIP5FieldEE8max_sizeEv
FNDA:0,_ZN9__gnu_cxx13new_allocatorISt10_List_nodeIP5FieldEE9constructIS3_JRKS3_EEEvPT_DpOT0_
FNDA:0,_ZN9__gnu_cxx13new_allocatorISt10_List_nodeIP5FieldEE7destroyIS3_EEvPT_
FNF:7
FNH:0
DA:79,0
DA:86,0
DA:99,0
DA:101,0
DA:102,0
DA:111,0
DA:116,0
DA:125,0
DA:126,0
DA:129,0
DA:130,0
DA:135,0
DA:136,0
DA:140,0
LF:14
LH:0
end_of_record
SF:/usr/include/c++/7/iostream
DA:74,1
LF:1
LH:1
end_of_record
SF:/usr/include/c++/7/new
FN:168,_ZnwmPv
FNDA:0,_ZnwmPv
FNF:1
FNH:0
DA:168,0
DA:169,0
LF:2
LH:0
end_of_record
SF:/home/mentathiel/Documents/Faks/IV/azrs/RGChess/RG136-chess/Queen.cc
FN:5,_ZN5QueenC2E11PlayerColorii
FN:7,_ZN5QueenC2E11PlayerColorP5Field
FN:12,_ZN5Queen16getPlayableMovesB5cxx11E10Chessboard
FN:155,_ZN5Queen12checkIfLegalE5Field10Chessboard
FN:175,_ZN5Queen10movedPieceE11PlayerColorP5Field
FN:182,_ZNK5Queen8toStringB5cxx11Ev
FN:190,_ZN5Queen7displayEii
FN:222,_Z41__static_initialization_and_destruction_0ii
FN:222,_GLOBAL__sub_I__ZN5QueenC2E11PlayerColorii
FNDA:2,_ZN5QueenC2E11PlayerColorii
FNDA:0,_ZN5QueenC2E11PlayerColorP5Field
FNDA:26,_ZN5Queen16getPlayableMovesB5cxx11E10Chessboard
FNDA:0,_ZN5Queen12checkIfLegalE5Field10Chessboard
FNDA:0,_ZN5Queen10movedPieceE11PlayerColorP5Field
FNDA:0,_ZNK5Queen8toStringB5cxx11Ev
FNDA:352,_ZN5Queen7displayEii
FNDA:1,_GLOBAL__sub_I__ZN5QueenC2E11PlayerColorii
FNDA:1,_Z41__static_initialization_and_destruction_0ii
FNF:9
FNH:5
DA:5,2
DA:7,0
DA:12,26
DA:13,26
DA:23,26
DA:24,13
DA:25,13
DA:26,13
DA:27,13
DA:29,0
DA:30,0
DA:31,0
DA:33,0
DA:36,29
DA:37,16
DA:38,16
DA:39,13
DA:40,13
DA:42,3
DA:43,0
DA:44,0
DA:46,3
DA:50,28
DA:51,28
DA:52,28
DA:53,26
DA:54,26
DA:56,2
DA:57,0
DA:58,0
DA:60,2
DA:63,26
DA:64,26
DA:65,26
DA:66,26
DA:67,26
DA:69,0
DA:70,0
DA:71,0
DA:73,0
DA:76,26
DA:155,0
DA:160,0
DA:161,0
DA:162,0
DA:163,0
DA:164,0
DA:166,0
DA:168,0
DA:175,0
DA:176,0
DA:182,0
DA:183,0
DA:184,0
DA:190,352
DA:191,352
DA:192,352
DA:193,352
DA:194,176
DA:197,176
DA:200,352
DA:201,352
DA:202,352
DA:203,352
DA:204,352
DA:205,352
DA:206,352
DA:207,352
DA:208,352
DA:209,352
DA:210,352
DA:211,352
DA:212,352
DA:213,352
DA:214,352
DA:215,352
DA:216,352
DA:217,352
DA:218,352
DA:219,352
DA:220,352
DA:221,352
DA:222,355
LF:83
LH:57
end_of_record
SF:/home/mentathiel/Documents/Faks/IV/azrs/RGChess/RG136-chess/chess.hpp
FN:105,_ZN5FieldC2Eii
FN:184,_ZN10ChessboardC2ERKS_
FNDA:0,_ZN5FieldC2Eii
FNDA:0,_ZN10ChessboardC2ERKS_
FNF:2
FNH:0
DA:105,0
DA:184,0
LF:2
LH:0
end_of_record
TN:
SF:/usr/include/c++/7/bits/alloc_traits.h
FN:461,_ZNSt16allocator_traitsISaISt10_List_nodeIP5FieldEEE10deallocateERS4_PS3_m
FN:486,_ZNSt16allocator_traitsISaISt10_List_nodeIP5FieldEEE7destroyIS2_EEvRS4_PT_
FNDA:1025,_ZNSt16allocator_traitsISaISt10_List_nodeIP5FieldEEE10deallocateERS4_PS3_m
FNDA:1025,_ZNSt16allocator_traitsISaISt10_List_nodeIP5FieldEEE7destroyIS2_EEvRS4_PT_
FNF:2
FNH:2
DA:461,1025
DA:462,1025
DA:486,1025
DA:487,1025
LF:4
LH:4
end_of_record
SF:/usr/include/c++/7/bits/allocator.h
FN:139,_ZNSaISt10_List_nodeIP5FieldEED2Ev
FNDA:441,_ZNSaISt10_List_nodeIP5FieldEED2Ev
FNF:1
FNH:1
DA:139,441
LF:1
LH:1
end_of_record
SF:/usr/include/c++/7/bits/list.tcc
FN:65,_ZNSt7__cxx1110_List_baseIP5FieldSaIS2_EE8_M_clearEv
FNDA:441,_ZNSt7__cxx1110_List_baseIP5FieldSaIS2_EE8_M_clearEv
FNF:1
FNH:1
DA:65,441
DA:69,441
DA:70,2491
DA:72,1025
DA:73,1025
DA:74,1025
DA:76,1025
DA:80,1025
DA:82,441
LF:9
LH:9
end_of_record
SF:/usr/include/c++/7/bits/stl_list.h
FN:113,_ZNSt10_List_nodeIP5FieldE9_M_valptrEv
FN:143,_ZNSt14_List_iteratorIP5FieldEC2EPNSt8__detail15_List_node_baseE
FN:152,_ZNKSt14_List_iteratorIP5FieldEdeEv
FN:160,_ZNSt14_List_iteratorIP5FieldEppEv
FN:194,_ZNKSt14_List_iteratorIP5FieldEneERKS2_
FN:323,_ZNSt7__cxx1110_List_baseIP5FieldSaIS2_EE10_List_implD2Ev
FN:386,_ZNSt7__cxx1110_List_baseIP5FieldSaIS2_EE11_M_put_nodeEPSt10_List_nodeIS2_E
FN:393,_ZNSt7__cxx1110_List_baseIP5FieldSaIS2_EE21_M_get_Node_allocatorEv
FN:441,_ZNSt7__cxx1110_List_baseIP5FieldSaIS2_EED2Ev
FN:733,_ZNSt7__cxx114listIP5FieldSaIS2_EED2Ev
FN:851,_ZNSt7__cxx114listIP5FieldSaIS2_EE5beginEv
FN:869,_ZNSt7__cxx114listIP5FieldSaIS2_EE3endEv
FNDA:3075,_ZNSt10_List_nodeIP5FieldE9_M_valptrEv
FNDA:1907,_ZNSt14_List_iteratorIP5FieldEC2EPNSt8__detail15_List_node_baseE
FNDA:1025,_ZNKSt14_List_iteratorIP5FieldEdeEv
FNDA:1025,_ZNSt14_List_iteratorIP5FieldEppEv
FNDA:1466,_ZNKSt14_List_iteratorIP5FieldEneERKS2_
FNDA:441,_ZNSt7__cxx1110_List_baseIP5FieldSaIS2_EE10_List_implD2Ev
FNDA:1025,_ZNSt7__cxx1110_List_baseIP5FieldSaIS2_EE11_M_put_nodeEPSt10_List_nodeIS2_E
FNDA:2050,_ZNSt7__cxx1110_List_baseIP5FieldSaIS2_EE21_M_get_Node_allocatorEv
FNDA:441,_ZNSt7__cxx1110_List_baseIP5FieldSaIS2_EED2Ev
FNDA:441,_ZNSt7__cxx114listIP5FieldSaIS2_EED2Ev
FNDA:441,_ZNSt7__cxx114listIP5FieldSaIS2_EE5beginEv
FNDA:1466,_ZNSt7__cxx114listIP5FieldSaIS2_EE3endEv
FNF:12
FNH:12
DA:113,3075
DA:143,1907
DA:144,1907
DA:152,1025
DA:153,1025
DA:160,1025
DA:162,1025
DA:163,1025
DA:194,1466
DA:195,1466
DA:323,441
DA:386,1025
DA:387,1025
DA:393,2050
DA:394,2050
DA:441,441
DA:442,441
DA:733,441
DA:851,441
DA:852,441
DA:869,1466
DA:870,1466
LF:22
LH:22
end_of_record
SF:/usr/include/c++/7/ext/aligned_buffer.h
FN:62,_ZN9__gnu_cxx16__aligned_membufIP5FieldE7_M_addrEv
FN:70,_ZN9__gnu_cxx16__aligned_membufIP5FieldE6_M_ptrEv
FNDA:3075,_ZN9__gnu_cxx16__aligned_membufIP5FieldE7_M_addrEv
FNDA:3075,_ZN9__gnu_cxx16__aligned_membufIP5FieldE6_M_ptrEv
FNF:2
FNH:2
DA:62,3075
DA:63,3075
DA:70,3075
DA:71,3075
LF:4
LH:4
end_of_record
SF:/usr/include/c++/7/ext/new_allocator.h
FN:86,_ZN9__gnu_cxx13new_allocatorISt10_List_nodeIP5FieldEED2Ev
FN:116,_ZN9__gnu_cxx13new_allocatorISt10_List_nodeIP5FieldEE10deallocateEPS4_m
FN:140,_ZN9__gnu_cxx13new_allocatorISt10_List_nodeIP5FieldEE7destroyIS3_EEvPT_
FNDA:441,_ZN9__gnu_cxx13new_allocatorISt10_List_nodeIP5FieldEED2Ev
FNDA:1025,_ZN9__gnu_cxx13new_allocatorISt10_List_nodeIP5FieldEE10deallocateEPS4_m
FNDA:1025,_ZN9__gnu_cxx13new_allocatorISt10_List_nodeIP5FieldEE7destroyIS3_EEvPT_
FNF:3
FNH:3
DA:86,441
DA:116,1025
DA:125,1025
DA:126,1025
DA:140,1025
LF:5
LH:5
end_of_record
SF:/usr/include/c++/7/iostream
DA:74,1
LF:1
LH:1
end_of_record
SF:/usr/include/c++/7/typeinfo
FN:120,_ZNKSt9type_infoeqERKS_
FN:136,_ZNKSt9type_infoneERKS_
FNDA:12165,_ZNKSt9type_infoeqERKS_
FNDA:13,_ZNKSt9type_infoneERKS_
FNF:2
FNH:2
DA:120,12165
DA:122,12165
DA:123,22859
DA:124,22859
DA:136,13
DA:137,13
LF:6
LH:6
end_of_record
SF:/home/mentathiel/Documents/Faks/IV/azrs/RGChess/RG136-chess/Chessboard.cc
FN:7,_ZN10ChessboardC2Ev
FN:11,_ZNK10Chessboard5printEv
FN:27,_ZN10Chessboard14updateAttackedEv
FN:60,_ZN10Chessboard15initializeBoardEv
FN:105,_ZN10ChessboardeqERKS_
FN:123,_ZN10ChessboardneERKS_
FN:143,_ZN10Chessboard7displayEiibii
FN:276,_GLOBAL__sub_I__ZN10ChessboardC2Ev
FN:276,_Z41__static_initialization_and_destruction_0ii
FNDA:1,_ZN10ChessboardC2Ev
FNDA:0,_ZNK10Chessboard5printEv
FNDA:13,_ZN10Chessboard14updateAttackedEv
FNDA:1,_ZN10Chessboard15initializeBoardEv
FNDA:0,_ZN10ChessboardeqERKS_
FNDA:0,_ZN10ChessboardneERKS_
FNDA:176,_ZN10Chessboard7displayEiibii
FNDA:1,_GLOBAL__sub_I__ZN10ChessboardC2Ev
FNDA:1,_Z41__static_initialization_and_destruction_0ii
FNF:9
FNH:6
DA:7,1
DA:8,1
DA:9,1
DA:11,0
DA:12,0
DA:13,0
DA:14,0
DA:15,0
DA:17,0
DA:19,0
DA:22,0
DA:27,13
DA:29,117
DA:30,936
DA:31,832
DA:32,832
DA:37,117
DA:38,936
DA:39,832
DA:41,416
DA:43,832
DA:45,1308
DA:46,892
DA:47,474
DA:49,418
DA:50,418
DA:52,892
DA:57,13
DA:60,1
DA:61,1
DA:63,9
DA:64,72
DA:65,64
DA:70,9
DA:71,8
DA:72,8
DA:76,1
DA:77,1
DA:78,1
DA:79,1
DA:82,1
DA:83,1
DA:84,1
DA:85,1
DA:88,1
DA:89,1
DA:90,1
DA:91,1
DA:94,1
DA:95,1
DA:98,1
DA:99,1
DA:100,1
DA:105,0
DA:106,0
DA:107,0
DA:108,0
DA:110,0
DA:111,0
DA:112,0
DA:113,0
DA:114,0
DA:115,0
DA:119,0
DA:123,0
DA:124,0
DA:125,0
DA:126,0
DA:128,0
DA:129,0
DA:130,0
DA:131,0
DA:132,0
DA:133,0
DA:137,0
DA:143,176
DA:144,176
DA:147,880
DA:148,3520
DA:149,2816
DA:151,2816
DA:152,46
DA:154,2770
DA:155,1387
DA:159,1383
DA:162,2816
DA:163,17
DA:166,2816
DA:167,2816
DA:168,2816
DA:172,880
DA:173,3520
DA:174,2816
DA:176,2816
DA:177,49
DA:179,2767
DA:180,1379
DA:184,1388
DA:187,2816
DA:188,16
DA:191,2816
DA:192,2816
DA:193,2816
DA:198,880
DA:199,3520
DA:200,2816
DA:202,2816
DA:203,50
DA:205,2766
DA:206,1382
DA:210,1384
DA:213,2816
DA:214,14
DA:217,2816
DA:218,2816
DA:219,2816
DA:224,880
DA:225,3520
DA:226,2816
DA:228,2816
DA:229,31
DA:231,2785
DA:232,1392
DA:235,1393
DA:238,2816
DA:239,11
DA:242,2816
DA:243,2816
DA:244,2816
DA:248,176
DA:249,176
DA:251,176
DA:252,176
DA:253,176
DA:254,176
DA:257,176
DA:258,176
DA:259,176
DA:260,176
DA:263,176
DA:264,176
DA:265,176
DA:266,176
DA:269,176
DA:270,176
DA:271,176
DA:272,176
DA:273,176
DA:275,176
DA:276,179
LF:150
LH:120
end_of_record
SF:/home/mentathiel/Documents/Faks/IV/azrs/RGChess/RG136-chess/chess.hpp
FN:184,_ZN10ChessboardC2ERKS_
FNDA:22337,_ZN10ChessboardC2ERKS_
FNF:1
FNH:1
DA:184,22337
LF:1
LH:1
end_of_record
TN:
SF:/usr/include/c++/7/bits/alloc_traits.h
FN:435,_ZNSt16allocator_traitsISaIPN10ObjHandler8Vector3fEEE8allocateERS3_m
FN:435,_ZNSt16allocator_traitsISaINSt7__cxx1112basic_stringIcSt11char_traitsIcESaIcEEEEE8allocateERS6_m
FN:435,_ZNSt16allocator_traitsISaIPiEE8allocateERS1_m
FN:461,_ZNSt16allocator_traitsISaINSt7__cxx1112basic_stringIcSt11char_traitsIcESaIcEEEEE10deallocateERS6_PS5_m
FN:461,_ZNSt16allocator_traitsISaIPiEE10deallocateERS1_PS0_m
FN:461,_ZNSt16allocator_traitsISaIPN10ObjHandler8Vector3fEEE10deallocateERS3_PS2_m
FN:474,_ZNSt16allocator_traitsISaIPiEE9constructIS0_JRKS0_EEEvRS1_PT_DpOT0_
FN:474,_ZNSt16allocator_traitsISaINSt7__cxx1112basic_stringIcSt11char_traitsIcESaIcEEEEE9constructIS5_JRKS5_EEEvRS6_PT_DpOT0_
FN:474,_ZNSt16allocator_traitsISaIPN10ObjHandler8Vector3fEEE9constructIS2_JS2_EEEvRS3_PT_DpOT0_
FN:486,_ZNSt16allocator_traitsISaIPN10ObjHandler8Vector3fEEE7destroyIS2_EEvRS3_PT_
FN:486,_ZNSt16allocator_traitsISaINSt7__cxx1112basic_stringIcSt11char_traitsIcESaIcEEEEE7destroyIS5_EEvRS6_PT_
FN:486,_ZNSt16allocator_traitsISaIPiEE7destroyIS0_EEvRS1_PT_
FN:495,_ZNSt16allocator_traitsISaIPN10ObjHandler8Vector3fEEE8max_sizeERKS3_
FN:495,_ZNSt16allocator_traitsISaINSt7__cxx1112basic_stringIcSt11char_traitsIcESaIcEEEEE8max_sizeERKS6_
FN:495,_ZNSt16allocator_traitsISaIPiEE8max_sizeERKS1_
FN:535,_ZSt18__do_alloc_on_moveISaIPiEEvRT_S3_St17integral_constantIbLb1EE
FN:543,_ZSt15__alloc_on_moveISaIPiEEvRT_S3_
FNDA:0,_ZNSt16allocator_traitsISaINSt7__cxx1112basic_stringIcSt11char_traitsIcESaIcEEEEE8allocateERS6_m
FNDA:0,_ZNSt16allocator_traitsISaIPiEE8allocateERS1_m
FNDA:0,_ZNSt16allocator_traitsISaIPN10ObjHandler8Vector3fEEE8allocateERS3_m
FNDA:0,_ZNSt16allocator_traitsISaINSt7__cxx1112basic_stringIcSt11char_traitsIcESaIcEEEEE10deallocateERS6_PS5_m
FNDA:0,_ZNSt16allocator_traitsISaIPiEE10deallocateERS1_PS0_m
FNDA:0,_ZNSt16allocator_traitsISaIPN10ObjHandler8Vector3fEEE10deallocateERS3_PS2_m
FNDA:0,_ZNSt16allocator_traitsISaIPN10ObjHandler8Vector3fEEE9constructIS2_JS2_EEEvRS3_PT_DpOT0_
FNDA:0,_ZNSt16allocator_traitsISaIPiEE9constructIS0_JRKS0_EEEvRS1_PT_DpOT0_
FNDA:0,_ZNSt16allocator_traitsISaINSt7__cxx1112basic_stringIcSt11char_traitsIcESaIcEEEEE9constructIS5_JRKS5_EEEvRS6_PT_DpOT0_
FNDA:0,_ZNSt16allocator_traitsISaIPN10ObjHandler8Vector3fEEE7destroyIS2_EEvRS3_PT_
FNDA:0,_ZNSt16allocator_traitsISaIPiEE7destroyIS0_EEvRS1_PT_
FNDA:0,_ZNSt16allocator_traitsISaINSt7__cxx1112basic_stringIcSt11char_traitsIcESaIcEEEEE7destroyIS5_EEvRS6_PT_
FNDA:0,_ZNSt16allocator_traitsISaINSt7__cxx1112basic_stringIcSt11char_traitsIcESaIcEEEEE8max_sizeERKS6_
FNDA:0,_ZNSt16allocator_traitsISaIPiEE8max_sizeERKS1_
FNDA:0,_ZNSt16allocator_traitsISaIPN10ObjHandler8Vector3fEEE8max_sizeERKS3_
FNDA:0,_ZSt18__do_alloc_on_moveISaIPiEEvRT_S3_St17integral_constantIbLb1EE
FNDA:0,_ZSt15__alloc_on_moveISaIPiEEvRT_S3_
FNF:17
FNH:0
DA:435,0
DA:436,0
DA:461,0
DA:462,0
DA:474,0
DA:475,0
DA:486,0
DA:487,0
DA:495,0
DA:496,0
DA:535,0
DA:536,0
DA:543,0
DA:547,0
DA:548,0
LF:15
LH:0
end_of_record
SF:/usr/include/c++/7/bits/allocator.h
FN:131,_ZNSaIPN10ObjHandler8Vector3fEEC2Ev
FN:131,_ZNSaINSt7__cxx1112basic_stringIcSt11char_traitsIcESaIcEEEEC2Ev
FN:131,_ZNSaIPiEC2Ev
FN:133,_ZNSaIPiEC2ERKS0_
FN:139,_ZNSaIPiED2Ev
FN:139,_ZNSaINSt7__cxx1112basic_stringIcSt11char_traitsIcESaIcEEEED2Ev
FN:139,_ZNSaIPN10ObjHandler8Vector3fEED2Ev
FNDA:0,_ZNSaIPiEC2Ev
FNDA:0,_ZNSaINSt7__cxx1112basic_stringIcSt11char_traitsIcESaIcEEEEC2Ev
FNDA:0,_ZNSaIPN10ObjHandler8Vector3fEEC2Ev
FNDA:0,_ZNSaIPiEC2ERKS0_
FNDA:0,_ZNSaINSt7__cxx1112basic_stringIcSt11char_traitsIcESaIcEEEED2Ev
FNDA:0,_ZNSaIPiED2Ev
FNDA:0,_ZNSaIPN10ObjHandler8Vector3fEED2Ev
FNF:7
FNH:0
DA:131,0
DA:133,0
DA:134,0
DA:139,0
LF:4
LH:0
end_of_record
SF:/usr/include/c++/7/bits/basic_string.h
FN:6043,_ZSteqIcSt11char_traitsIcESaIcEEbRKNSt7__cxx1112basic_stringIT_T0_T1_EEPKS5_
FN:6397,_ZNSt7__cxx114stofERKNS_12basic_stringIcSt11char_traitsIcESaIcEEEPm
FNDA:0,_ZSteqIcSt11char_traitsIcESaIcEEbRKNSt7__cxx1112basic_stringIT_T0_T1_EEPKS5_
FNDA:0,_ZNSt7__cxx114stofERKNS_12basic_stringIcSt11char_traitsIcESaIcEEEPm
FNF:2
FNH:0
DA:6043,0
DA:6045,0
DA:6397,0
DA:6398,0
LF:4
LH:0
end_of_record
SF:/usr/include/c++/7/bits/cpp_type_traits.h
FN:408,_ZSt12__miter_baseIPPiET_S2_
FN:408,_ZSt12__miter_baseIPPN10ObjHandler8Vector3fEET_S4_
FNDA:0,_ZSt12__miter_baseIPPiET_S2_
FNDA:0,_ZSt12__miter_baseIPPN10ObjHandler8Vector3fEET_S4_
FNF:2
FNH:0
DA:408,0
DA:409,0
LF:2
LH:0
end_of_record
SF:/usr/include/c++/7/bits/ios_base.h
FN:129,_ZStorSt13_Ios_OpenmodeS_
FNDA:0,_ZStorSt13_Ios_OpenmodeS_
FNF:1
FNH:0
DA:129,0
DA:130,0
LF:2
LH:0
end_of_record
SF:/usr/include/c++/7/bits/move.h
FN:47,_ZSt11__addressofINSt7__cxx1112basic_stringIcSt11char_traitsIcESaIcEEEEPT_RS6_
FN:73,_ZSt7forwardIRKNSt7__cxx1112basic_stringIcSt11char_traitsIcESaIcEEEEOT_RNSt16remove_referenceIS8_E4typeE
FN:73,_ZSt7forwardINSt7__cxx1112basic_stringIcSt11char_traitsIcESaIcEEEEOT_RNSt16remove_referenceIS6_E4typeE
FN:73,_ZSt7forwardIRKPiEOT_RNSt16remove_referenceIS3_E4typeE
FN:73,_ZSt7forwardIPN10ObjHandler8Vector3fEEOT_RNSt16remove_referenceIS3_E4typeE
FN:98,_ZSt4moveIRPPiEONSt16remove_referenceIT_E4typeEOS4_
FN:98,_ZSt4moveIRPN10ObjHandler8Vector3fEEONSt16remove_referenceIT_E4typeEOS5_
FN:98,_ZSt4moveIRSt6vectorIPiSaIS1_EEEONSt16remove_referenceIT_E4typeEOS6_
FN:98,_ZSt4moveIRSaIPiEEONSt16remove_referenceIT_E4typeEOS4_
FN:187,_ZSt4swapIPPiENSt9enable_ifIXsrSt6__and_IJSt6__not_ISt15__is_tuple_likeIT_EESt21is_move_constructibleIS6_ESt18is_move_assignableIS6_EEE5valueEvE4typeERS6_SG_
FNDA:0,_ZSt11__addressofINSt7__cxx1112basic_stringIcSt11char_traitsIcESaIcEEEEPT_RS6_
FNDA:0,_ZSt7forwardINSt7__cxx1112basic_stringIcSt11char_traitsIcESaIcEEEEOT_RNSt16remove_referenceIS6_E4typeE
FNDA:0,_ZSt7forwardIRKPiEOT_RNSt16remove_referenceIS3_E4typeE
FNDA:0,_ZSt7forwardIPN10ObjHandler8Vector3fEEOT_RNSt16remove_referenceIS3_E4typeE
FNDA:0,_ZSt7forwardIRKNSt7__cxx1112basic_stringIcSt11char_traitsIcESaIcEEEEOT_RNSt16remove_referenceIS8_E4typeE
FNDA:0,_ZSt4moveIRPPiEONSt16remove_referenceIT_E4typeEOS4_
FNDA:0,_ZSt4moveIRSaIPiEEONSt16remove_referenceIT_E4typeEOS4_
FNDA:0,_ZSt4moveIRSt6vectorIPiSaIS1_EEEONSt16remove_referenceIT_E4typeEOS6_
FNDA:0,_ZSt4moveIRPN10ObjHandler8Vector3fEEONSt16remove_referenceIT_E4typeEOS5_
FNDA:0,_ZSt4swapIPPiENSt9enable_ifIXsrSt6__and_IJSt6__not_ISt15__is_tuple_likeIT_EESt21is_move_constructibleIS6_ESt18is_move_assignableIS6_EEE5valueEvE4typeERS6_SG_
FNF:10
FNH:0
DA:47,0
DA:48,0
DA:73,0
DA:74,0
DA:98,0
DA:99,0
DA:187,0
DA:198,0
DA:199,0
DA:200,0
DA:201,0
LF:11
LH:0
end_of_record
SF:/usr/include/c++/7/bits/stl_algobase.h
FN:219,_ZSt3maxImERKT_S2_S2_
FN:277,_ZSt12__niter_baseIPPN10ObjHandler8Vector3fEET_S4_
FN:277,_ZSt12__niter_baseIPPiET_S2_
FN:357,_ZNSt11__copy_moveILb1ELb1ESt26random_access_iterator_tagE8__copy_mIPiEEPT_PKS4_S7_S5_
FN:357,_ZNSt11__copy_moveILb1ELb1ESt26random_access_iterator_tagE8__copy_mIPN10ObjHandler8Vector3fEEEPT_PKS6_S9_S7_
FN:375,_ZSt13__copy_move_aILb1EPPiS1_ET1_T0_S3_S2_
FN:375,_ZSt13__copy_move_aILb1EPPN10ObjHandler8Vector3fES3_ET1_T0_S5_S4_
FN:420,_ZSt14__copy_move_a2ILb1EPPiS1_ET1_T0_S3_S2_
FN:420,_ZSt14__copy_move_a2ILb1EPPN10ObjHandler8Vector3fES3_ET1_T0_S5_S4_
FN:446,_ZSt4copyISt13move_iteratorIPPiES2_ET0_T_S5_S4_
FN:446,_ZSt4copyISt13move_iteratorIPPN10ObjHandler8Vector3fEES4_ET0_T_S7_S6_
FN:749,_ZSt10__fill_n_aIPPN10ObjHandler8Vector3fEmS2_EN9__gnu_cxx11__enable_ifIXsrSt11__is_scalarIT1_E7__valueET_E6__typeES9_T0_RKS7_
FN:749,_ZSt10__fill_n_aIPPimS0_EN9__gnu_cxx11__enable_ifIXsrSt11__is_scalarIT1_E7__valueET_E6__typeES7_T0_RKS5_
FN:784,_ZSt6fill_nIPPN10ObjHandler8Vector3fEmS2_ET_S4_T0_RKT1_
FN:784,_ZSt6fill_nIPPimS0_ET_S2_T0_RKT1_
FNDA:0,_ZSt3maxImERKT_S2_S2_
FNDA:0,_ZSt12__niter_baseIPPiET_S2_
FNDA:0,_ZSt12__niter_baseIPPN10ObjHandler8Vector3fEET_S4_
FNDA:0,_ZNSt11__copy_moveILb1ELb1ESt26random_access_iterator_tagE8__copy_mIPiEEPT_PKS4_S7_S5_
FNDA:0,_ZNSt11__copy_moveILb1ELb1ESt26random_access_iterator_tagE8__copy_mIPN10ObjHandler8Vector3fEEEPT_PKS6_S9_S7_
FNDA:0,_ZSt13__copy_move_aILb1EPPiS1_ET1_T0_S3_S2_
FNDA:0,_ZSt13__copy_move_aILb1EPPN10ObjHandler8Vector3fES3_ET1_T0_S5_S4_
FNDA:0,_ZSt14__copy_move_a2ILb1EPPiS1_ET1_T0_S3_S2_
FNDA:0,_ZSt14__copy_move_a2ILb1EPPN10ObjHandler8Vector3fES3_ET1_T0_S5_S4_
FNDA:0,_ZSt4copyISt13move_iteratorIPPiES2_ET0_T_S5_S4_
FNDA:0,_ZSt4copyISt13move_iteratorIPPN10ObjHandler8Vector3fEES4_ET0_T_S7_S6_
FNDA:0,_ZSt10__fill_n_aIPPimS0_EN9__gnu_cxx11__enable_ifIXsrSt11__is_scalarIT1_E7__valueET_E6__typeES7_T0_RKS5_
FNDA:0,_ZSt10__fill_n_aIPPN10ObjHandler8Vector3fEmS2_EN9__gnu_cxx11__enable_ifIXsrSt11__is_scalarIT1_E7__valueET_E6__typeES9_T0_RKS7_
FNDA:0,_ZSt6fill_nIPPimS0_ET_S2_T0_RKT1_
FNDA:0,_ZSt6fill_nIPPN10ObjHandler8Vector3fEmS2_ET_S4_T0_RKT1_
FNF:15
FNH:0
DA:219,0
DA:224,0
DA:225,0
DA:226,0
DA:277,0
DA:278,0
DA:357,0
DA:366,0
DA:367,0
DA:368,0
DA:369,0
DA:375,0
DA:380,0
DA:386,0
DA:420,0
DA:422,0
DA:424,0
DA:446,0
DA:455,0
DA:456,0
DA:749,0
DA:751,0
DA:752,0
DA:753,0
DA:754,0
DA:755,0
DA:784,0
DA:789,0
LF:28
LH:0
end_of_record
SF:/usr/include/c++/7/bits/stl_construct.h
FN:74,_ZSt10_ConstructINSt7__cxx1112basic_stringIcSt11char_traitsIcESaIcEEEJS5_EEvPT_DpOT0_
FN:97,_ZSt8_DestroyINSt7__cxx1112basic_stringIcSt11char_traitsIcESaIcEEEEvPT_
FN:105,_ZNSt12_Destroy_auxILb0EE9__destroyIPNSt7__cxx1112basic_stringIcSt11char_traitsIcESaIcEEEEEvT_S9_
FN:117,_ZNSt12_Destroy_auxILb1EE9__destroyIPPiEEvT_S4_
FN:117,_ZNSt12_Destroy_auxILb1EE9__destroyIPPN10ObjHandler8Vector3fEEEvT_S6_
FN:127,_ZSt8_DestroyIPNSt7__cxx1112basic_stringIcSt11char_traitsIcESaIcEEEEvT_S7_
FN:127,_ZSt8_DestroyIPPN10ObjHandler8Vector3fEEvT_S4_
FN:127,_ZSt8_DestroyIPPiEvT_S2_
FN:203,_ZSt8_DestroyIPPN10ObjHandler8Vector3fES2_EvT_S4_RSaIT0_E
FN:203,_ZSt8_DestroyIPNSt7__cxx1112basic_stringIcSt11char_traitsIcESaIcEEES5_EvT_S7_RSaIT0_E
FN:203,_ZSt8_DestroyIPPiS0_EvT_S2_RSaIT0_E
FNDA:0,_ZSt10_ConstructINSt7__cxx1112basic_stringIcSt11char_traitsIcESaIcEEEJS5_EEvPT_DpOT0_
FNDA:0,_ZSt8_DestroyINSt7__cxx1112basic_stringIcSt11char_traitsIcESaIcEEEEvPT_
FNDA:0,_ZNSt12_Destroy_auxILb0EE9__destroyIPNSt7__cxx1112basic_stringIcSt11char_traitsIcESaIcEEEEEvT_S9_
FNDA:0,_ZNSt12_Destroy_auxILb1EE9__destroyIPPiEEvT_S4_
FNDA:0,_ZNSt12_Destroy_auxILb1EE9__destroyIPPN10ObjHandler8Vector3fEEEvT_S6_
FNDA:0,_ZSt8_DestroyIPNSt7__cxx1112basic_stringIcSt11char_traitsIcESaIcEEEEvT_S7_
FNDA:0,_ZSt8_DestroyIPPiEvT_S2_
FNDA:0,_ZSt8_DestroyIPPN10ObjHandler8Vector3fEEvT_S4_
FNDA:0,_ZSt8_DestroyIPNSt7__cxx1112basic_stringIcSt11char_traitsIcESaIcEEES5_EvT_S7_RSaIT0_E
FNDA:0,_ZSt8_DestroyIPPiS0_EvT_S2_RSaIT0_E
FNDA:0,_ZSt8_DestroyIPPN10ObjHandler8Vector3fES2_EvT_S4_RSaIT0_E
FNF:11
FNH:0
DA:74,0
DA:75,0
DA:97,0
DA:98,0
DA:105,0
DA:107,0
DA:108,0
DA:109,0
DA:117,0
DA:127,0
DA:137,0
DA:138,0
DA:203,0
DA:206,0
DA:207,0
LF:15
LH:0
end_of_record
SF:/usr/include/c++/7/bits/stl_iterator.h
FN:782,_ZN9__gnu_cxx17__normal_iteratorIPPiSt6vectorIS1_SaIS1_EEEC2ERKS2_
FN:782,_ZN9__gnu_cxx17__normal_iteratorIPNSt7__cxx1112basic_stringIcSt11char_traitsIcESaIcEEESt6vectorIS6_SaIS6_EEEC2ERKS7_
FN:782,_ZN9__gnu_cxx17__normal_iteratorIPPN10ObjHandler8Vector3fESt6vectorIS3_SaIS3_EEEC2ERKS4_
FN:795,_ZNK9__gnu_cxx17__normal_iteratorIPPiSt6vectorIS1_SaIS1_EEEdeEv
FN:795,_ZNK9__gnu_cxx17__normal_iteratorIPPN10ObjHandler8Vector3fESt6vectorIS3_SaIS3_EEEdeEv
FN:795,_ZNK9__gnu_cxx17__normal_iteratorIPcNSt7__cxx1112basic_stringIcSt11char_traitsIcESaIcEEEEdeEv
FN:795,_ZNK9__gnu_cxx17__normal_iteratorIPNSt7__cxx1112basic_stringIcSt11char_traitsIcESaIcEEESt6vectorIS6_SaIS6_EEEdeEv
FN:803,_ZN9__gnu_cxx17__normal_iteratorIPPN10ObjHandler8Vector3fESt6vectorIS3_SaIS3_EEEppEv
FN:803,_ZN9__gnu_cxx17__normal_iteratorIPcNSt7__cxx1112basic_stringIcSt11char_traitsIcESaIcEEEEppEv
FN:803,_ZN9__gnu_cxx17__normal_iteratorIPNSt7__cxx1112basic_stringIcSt11char_traitsIcESaIcEEESt6vectorIS6_SaIS6_EEEppEv
FN:803,_ZN9__gnu_cxx17__normal_iteratorIPPiSt6vectorIS1_SaIS1_EEEppEv
FN:847,_ZNK9__gnu_cxx17__normal_iteratorIPNSt7__cxx1112basic_stringIcSt11char_traitsIcESaIcEEESt6vectorIS6_SaIS6_EEE4baseEv
FN:847,_ZNK9__gnu_cxx17__normal_iteratorIPPN10ObjHandler8Vector3fESt6vectorIS3_SaIS3_EEE4baseEv
FN:847,_ZNK9__gnu_cxx17__normal_iteratorIPPiSt6vectorIS1_SaIS1_EEE4baseEv
FN:847,_ZNK9__gnu_cxx17__normal_iteratorIPcNSt7__cxx1112basic_stringIcSt11char_traitsIcESaIcEEEE4baseEv
FN:883,_ZN9__gnu_cxxneIPcNSt7__cxx1112basic_stringIcSt11char_traitsIcESaIcEEEEEbRKNS_17__normal_iteratorIT_T0_EESD_
FN:883,_ZN9__gnu_cxxneIPPN10ObjHandler8Vector3fESt6vectorIS3_SaIS3_EEEEbRKNS_17__normal_iteratorIT_T0_EESD_
FN:883,_ZN9__gnu_cxxneIPNSt7__cxx1112basic_stringIcSt11char_traitsIcESaIcEEESt6vectorIS6_SaIS6_EEEEbRKNS_17__normal_iteratorIT_T0_EESG_
FN:883,_ZN9__gnu_cxxneIPPiSt6vectorIS1_SaIS1_EEEEbRKNS_17__normal_iteratorIT_T0_EESB_
FN:965,_ZN9__gnu_cxxmiIPPiSt6vectorIS1_SaIS1_EEEENS_17__normal_iteratorIT_T0_E15difference_typeERKS9_SC_
FN:965,_ZN9__gnu_cxxmiIPNSt7__cxx1112basic_stringIcSt11char_traitsIcESaIcEEESt6vectorIS6_SaIS6_EEEENS_17__normal_iteratorIT_T0_E15difference_typeERKSE_SH_
FN:965,_ZN9__gnu_cxxmiIPPN10ObjHandler8Vector3fESt6vectorIS3_SaIS3_EEEENS_17__normal_iteratorIT_T0_E15difference_typeERKSB_SE_
FN:1039,_ZNSt13move_iteratorIPPN10ObjHandler8Vector3fEEC2ES3_
FN:1039,_ZNSt13move_iteratorIPNSt7__cxx1112basic_stringIcSt11char_traitsIcESaIcEEEEC2ES6_
FN:1039,_ZNSt13move_iteratorIPPiEC2ES1_
FN:1048,_ZNKSt13move_iteratorIPNSt7__cxx1112basic_stringIcSt11char_traitsIcESaIcEEEE4baseEv
FN:1048,_ZNKSt13move_iteratorIPPN10ObjHandler8Vector3fEE4baseEv
FN:1048,_ZNKSt13move_iteratorIPPiE4baseEv
FN:1052,_ZNKSt13move_iteratorIPNSt7__cxx1112basic_stringIcSt11char_traitsIcESaIcEEEEdeEv
FN:1060,_ZNSt13move_iteratorIPNSt7__cxx1112basic_stringIcSt11char_traitsIcESaIcEEEEppEv
FN:1127,_ZSteqIPNSt7__cxx1112basic_stringIcSt11char_traitsIcESaIcEEEEbRKSt13move_iteratorIT_ESB_
FN:1139,_ZStneIPNSt7__cxx1112basic_stringIcSt11char_traitsIcESaIcEEEEbRKSt13move_iteratorIT_ESB_
FN:1224,_ZSt32__make_move_if_noexcept_iteratorINSt7__cxx1112basic_stringIcSt11char_traitsIcESaIcEEESt13move_iteratorIPS5_EET0_PT_
FN:1224,_ZSt32__make_move_if_noexcept_iteratorIPiSt13move_iteratorIPS0_EET0_PT_
FN:1224,_ZSt32__make_move_if_noexcept_iteratorIPN10ObjHandler8Vector3fESt13move_iteratorIPS2_EET0_PT_
FN:1244,_ZSt12__miter_baseIPPN10ObjHandler8Vector3fEEDTcl12__miter_basecldtfp_4baseEEESt13move_iteratorIT_E
FN:1244,_ZSt12__miter_baseIPPiEDTcl12__miter_basecldtfp_4baseEEESt13move_iteratorIT_E
FNDA:0,_ZN9__gnu_cxx17__normal_iteratorIPNSt7__cxx1112basic_stringIcSt11char_traitsIcESaIcEEESt6vectorIS6_SaIS6_EEEC2ERKS7_
FNDA:0,_ZN9__gnu_cxx17__normal_iteratorIPPiSt6vectorIS1_SaIS1_EEEC2ERKS2_
FNDA:0,_ZN9__gnu_cxx17__normal_iteratorIPPN10ObjHandler8Vector3fESt6vectorIS3_SaIS3_EEEC2ERKS4_
FNDA:0,_ZNK9__gnu_cxx17__normal_iteratorIPcNSt7__cxx1112basic_stringIcSt11char_traitsIcESaIcEEEEdeEv
FNDA:0,_ZNK9__gnu_cxx17__normal_iteratorIPNSt7__cxx1112basic_stringIcSt11char_traitsIcESaIcEEESt6vectorIS6_SaIS6_EEEdeEv
FNDA:0,_ZNK9__gnu_cxx17__normal_iteratorIPPiSt6vectorIS1_SaIS1_EEEdeEv
FNDA:0,_ZNK9__gnu_cxx17__normal_iteratorIPPN10ObjHandler8Vector3fESt6vectorIS3_SaIS3_EEEdeEv
FNDA:0,_ZN9__gnu_cxx17__normal_iteratorIPcNSt7__cxx1112basic_stringIcSt11char_traitsIcESaIcEEEEppEv
FNDA:0,_ZN9__gnu_cxx17__normal_iteratorIPNSt7__cxx1112basic_stringIcSt11char_traitsIcESaIcEEESt6vectorIS6_SaIS6_EEEppEv
FNDA:0,_ZN9__gnu_cxx17__normal_iteratorIPPiSt6vectorIS1_SaIS1_EEEppEv
FNDA:0,_ZN9__gnu_cxx17__normal_iteratorIPPN10ObjHandler8Vector3fESt6vectorIS3_SaIS3_EEEppEv
FNDA:0,_ZNK9__gnu_cxx17__normal_iteratorIPcNSt7__cxx1112basic_stringIcSt11char_traitsIcESaIcEEEE4baseEv
FNDA:0,_ZNK9__gnu_cxx17__normal_iteratorIPNSt7__cxx1112basic_stringIcSt11char_traitsIcESaIcEEESt6vectorIS6_SaIS6_EEE4baseEv
FNDA:0,_ZNK9__gnu_cxx17__normal_iteratorIPPiSt6vectorIS1_SaIS1_EEE4baseEv
FNDA:0,_ZNK9__gnu_cxx17__normal_iteratorIPPN10ObjHandler8Vector3fESt6vectorIS3_SaIS3_EEE4baseEv
FNDA:0,_ZN9__gnu_cxxneIPcNSt7__cxx1112basic_stringIcSt11char_traitsIcESaIcEEEEEbRKNS_17__normal_iteratorIT_T0_EESD_
FNDA:0,_ZN9__gnu_cxxneIPNSt7__cxx1112basic_stringIcSt11char_traitsIcESaIcEEESt6vectorIS6_SaIS6_EEEEbRKNS_17__normal_iteratorIT_T0_EESG_
FNDA:0,_ZN9__gnu_cxxneIPPiSt6vectorIS1_SaIS1_EEEEbRKNS_17__normal_iteratorIT_T0_EESB_
FNDA:0,_ZN9__gnu_cxxneIPPN10ObjHandler8Vector3fESt6vectorIS3_SaIS3_EEEEbRKNS_17__normal_iteratorIT_T0_EESD_
FNDA:0,_ZN9__gnu_cxxmiIPPN10ObjHandler8Vector3fESt6vectorIS3_SaIS3_EEEENS_17__normal_iteratorIT_T0_E15difference_typeERKSB_SE_
FNDA:0,_ZN9__gnu_cxxmiIPPiSt6vectorIS1_SaIS1_EEEENS_17__normal_iteratorIT_T0_E15difference_typeERKS9_SC_
FNDA:0,_ZN9__gnu_cxxmiIPNSt7__cxx1112basic_stringIcSt11char_traitsIcESaIcEEESt6vectorIS6_SaIS6_EEEENS_17__normal_iteratorIT_T0_E15difference_typeERKSE_SH_
FNDA:0,_ZNSt13move_iteratorIPNSt7__cxx1112basic_stringIcSt11char_traitsIcESaIcEEEEC2ES6_
FNDA:0,_ZNSt13move_iteratorIPPiEC2ES1_
FNDA:0,_ZNSt13move_iteratorIPPN10ObjHandler8Vector3fEEC2ES3_
FNDA:0,_ZNKSt13move_iteratorIPNSt7__cxx1112basic_stringIcSt11char_traitsIcESaIcEEEE4baseEv
FNDA:0,_ZNKSt13move_iteratorIPPiE4baseEv
FNDA:0,_ZNKSt13move_iteratorIPPN10ObjHandler8Vector3fEE4baseEv
FNDA:0,_ZNKSt13move_iteratorIPNSt7__cxx1112basic_stringIcSt11char_traitsIcESaIcEEEEdeEv
FNDA:0,_ZNSt13move_iteratorIPNSt7__cxx1112basic_stringIcSt11char_traitsIcESaIcEEEEppEv
FNDA:0,_ZSteqIPNSt7__cxx1112basic_stringIcSt11char_traitsIcESaIcEEEEbRKSt13move_iteratorIT_ESB_
FNDA:0,_ZStneIPNSt7__cxx1112basic_stringIcSt11char_traitsIcESaIcEEEEbRKSt13move_iteratorIT_ESB_
FNDA:0,_ZSt32__make_move_if_noexcept_iteratorINSt7__cxx1112basic_stringIcSt11char_traitsIcESaIcEEESt13move_iteratorIPS5_EET0_PT_
FNDA:0,_ZSt32__make_move_if_noexcept_iteratorIPiSt13move_iteratorIPS0_EET0_PT_
FNDA:0,_ZSt32__make_move_if_noexcept_iteratorIPN10ObjHandler8Vector3fESt13move_iteratorIPS2_EET0_PT_
FNDA:0,_ZSt12__miter_baseIPPiEDTcl12__miter_basecldtfp_4baseEEESt13move_iteratorIT_E
FNDA:0,_ZSt12__miter_baseIPPN10ObjHandler8Vector3fEEDTcl12__miter_basecldtfp_4baseEEESt13move_iteratorIT_E
FNF:37
FNH:0
DA:782,0
DA:783,0
DA:795,0
DA:796,0
DA:803,0
DA:805,0
DA:806,0
DA:847,0
DA:848,0
DA:883,0
DA:886,0
DA:965,0
DA:968,0
DA:1039,0
DA:1040,0
DA:1048,0
DA:1049,0
DA:1052,0
DA:1053,0
DA:1060,0
DA:1062,0
DA:1063,0
DA:1127,0
DA:1129,0
DA:1139,0
DA:1141,0
DA:1224,0
DA:1225,0
DA:1244,0
DA:1246,0
LF:30
LH:0
end_of_record
SF:/usr/include/c++/7/bits/stl_uninitialized.h
FN:76,_ZNSt20__uninitialized_copyILb0EE13__uninit_copyISt13move_iteratorIPNSt7__cxx1112basic_stringIcSt11char_traitsIcESaIcEEEES9_EET0_T_SC_SB_
FN:99,_ZNSt20__uninitialized_copyILb1EE13__uninit_copyISt13move_iteratorIPPiES4_EET0_T_S7_S6_
FN:99,_ZNSt20__uninitialized_copyILb1EE13__uninit_copyISt13move_iteratorIPPN10ObjHandler8Vector3fEES6_EET0_T_S9_S8_
FN:115,_ZSt18uninitialized_copyISt13move_iteratorIPNSt7__cxx1112basic_stringIcSt11char_traitsIcESaIcEEEES7_ET0_T_SA_S9_
FN:115,_ZSt18uninitialized_copyISt13move_iteratorIPPN10ObjHandler8Vector3fEES4_ET0_T_S7_S6_
FN:115,_ZSt18uninitialized_copyISt13move_iteratorIPPiES2_ET0_T_S5_S4_
FN:287,_ZSt22__uninitialized_copy_aISt13move_iteratorIPNSt7__cxx1112basic_stringIcSt11char_traitsIcESaIcEEEES7_S6_ET0_T_SA_S9_RSaIT1_E
FN:287,_ZSt22__uninitialized_copy_aISt13move_iteratorIPPiES2_S1_ET0_T_S5_S4_RSaIT1_E
FN:287,_ZSt22__uninitialized_copy_aISt13move_iteratorIPPN10ObjHandler8Vector3fEES4_S3_ET0_T_S7_S6_RSaIT1_E
FN:305,_ZSt34__uninitialized_move_if_noexcept_aIPPiS1_SaIS0_EET0_T_S4_S3_RT1_
FN:305,_ZSt34__uninitialized_move_if_noexcept_aIPNSt7__cxx1112basic_stringIcSt11char_traitsIcESaIcEEES6_SaIS5_EET0_T_S9_S8_RT1_
FN:305,_ZSt34__uninitialized_move_if_noexcept_aIPPN10ObjHandler8Vector3fES3_SaIS2_EET0_T_S6_S5_RT1_
FN:543,_ZNSt27__uninitialized_default_n_1ILb1EE18__uninit_default_nIPPimEET_S4_T0_
FN:543,_ZNSt27__uninitialized_default_n_1ILb1EE18__uninit_default_nIPPN10ObjHandler8Vector3fEmEET_S6_T0_
FN:574,_ZSt25__uninitialized_default_nIPPN10ObjHandler8Vector3fEmET_S4_T0_
FN:574,_ZSt25__uninitialized_default_nIPPimET_S2_T0_
FN:643,_ZSt27__uninitialized_default_n_aIPPN10ObjHandler8Vector3fEmS2_ET_S4_T0_RSaIT1_E
FN:643,_ZSt27__uninitialized_default_n_aIPPimS0_ET_S2_T0_RSaIT1_E
FNDA:0,_ZNSt20__uninitialized_copyILb0EE13__uninit_copyISt13move_iteratorIPNSt7__cxx1112basic_stringIcSt11char_traitsIcESaIcEEEES9_EET0_T_SC_SB_
FNDA:0,_ZNSt20__uninitialized_copyILb1EE13__uninit_copyISt13move_iteratorIPPiES4_EET0_T_S7_S6_
FNDA:0,_ZNSt20__uninitialized_copyILb1EE13__uninit_copyISt13move_iteratorIPPN10ObjHandler8Vector3fEES6_EET0_T_S9_S8_
FNDA:0,_ZSt18uninitialized_copyISt13move_iteratorIPNSt7__cxx1112basic_stringIcSt11char_traitsIcESaIcEEEES7_ET0_T_SA_S9_
FNDA:0,_ZSt18uninitialized_copyISt13move_iteratorIPPiES2_ET0_T_S5_S4_
FNDA:0,_ZSt18uninitialized_copyISt13move_iteratorIPPN10ObjHandler8Vector3fEES4_ET0_T_S7_S6_
FNDA:0,_ZSt22__uninitialized_copy_aISt13move_iteratorIPNSt7__cxx1112basic_stringIcSt11char_traitsIcESaIcEEEES7_S6_ET0_T_SA_S9_RSaIT1_E
FNDA:0,_ZSt22__uninitialized_copy_aISt13move_iteratorIPPiES2_S1_ET0_T_S5_S4_RSaIT1_E
FNDA:0,_ZSt22__uninitialized_copy_aISt13move_iteratorIPPN10ObjHandler8Vector3fEES4_S3_ET0_T_S7_S6_RSaIT1_E
FNDA:0,_ZSt34__uninitialized_move_if_noexcept_aIPNSt7__cxx1112basic_stringIcSt11char_traitsIcESaIcEEES6_SaIS5_EET0_T_S9_S8_RT1_
FNDA:0,_ZSt34__uninitialized_move_if_noexcept_aIPPiS1_SaIS0_EET0_T_S4_S3_RT1_
FNDA:0,_ZSt34__uninitialized_move_if_noexcept_aIPPN10ObjHandler8Vector3fES3_SaIS2_EET0_T_S6_S5_RT1_
FNDA:0,_ZNSt27__uninitialized_default_n_1ILb1EE18__uninit_default_nIPPimEET_S4_T0_
FNDA:0,_ZNSt27__uninitialized_default_n_1ILb1EE18__uninit_default_nIPPN10ObjHandler8Vector3fEmEET_S6_T0_
FNDA:0,_ZSt25__uninitialized_default_nIPPimET_S2_T0_
FNDA:0,_ZSt25__uninitialized_default_nIPPN10ObjHandler8Vector3fEmET_S4_T0_
FNDA:0,_ZSt27__uninitialized_default_n_aIPPimS0_ET_S2_T0_RSaIT1_E
FNDA:0,_ZSt27__uninitialized_default_n_aIPPN10ObjHandler8Vector3fEmS2_ET_S4_T0_RSaIT1_E
FNF:18
FNH:0
DA:76,0
DA:79,0
DA:82,0
DA:83,0
DA:84,0
DA:86,0
DA:88,0
DA:89,0
DA:99,0
DA:101,0
DA:115,0
DA:128,0
DA:134,0
DA:287,0
DA:289,0
DA:305,0
DA:311,0
DA:312,0
DA:543,0
DA:548,0
DA:574,0
DA:579,0
DA:583,0
DA:643,0
DA:645,0
LF:25
LH:0
end_of_record
SF:/usr/include/c++/7/bits/stl_vector.h
FN:81,_ZNSt12_Vector_baseINSt7__cxx1112basic_stringIcSt11char_traitsIcESaIcEEESaIS5_EE12_Vector_implD2Ev
FN:81,_ZNSt12_Vector_baseIPiSaIS0_EE12_Vector_implD2Ev
FN:81,_ZNSt12_Vector_baseIPN10ObjHandler8Vector3fESaIS2_EE12_Vector_implD2Ev
FN:88,_ZNSt12_Vector_baseIPiSaIS0_EE12_Vector_implC2Ev
FN:88,_ZNSt12_Vector_baseIPN10ObjHandler8Vector3fESaIS2_EE12_Vector_implC2Ev
FN:88,_ZNSt12_Vector_baseINSt7__cxx1112basic_stringIcSt11char_traitsIcESaIcEEESaIS5_EE12_Vector_implC2Ev
FN:92,_ZNSt12_Vector_baseIPiSaIS0_EE12_Vector_implC2ERKS1_
FN:103,_ZNSt12_Vector_baseIPiSaIS0_EE12_Vector_impl12_M_swap_dataERS3_
FN:115,_ZNSt12_Vector_baseIPN10ObjHandler8Vector3fESaIS2_EE19_M_get_Tp_allocatorEv
FN:115,_ZNSt12_Vector_baseIPiSaIS0_EE19_M_get_Tp_allocatorEv
FN:115,_ZNSt12_Vector_baseINSt7__cxx1112basic_stringIcSt11char_traitsIcESaIcEEESaIS5_EE19_M_get_Tp_allocatorEv
FN:119,_ZNKSt12_Vector_baseINSt7__cxx1112basic_stringIcSt11char_traitsIcESaIcEEESaIS5_EE19_M_get_Tp_allocatorEv
FN:119,_ZNKSt12_Vector_baseIPN10ObjHandler8Vector3fESaIS2_EE19_M_get_Tp_allocatorEv
FN:119,_ZNKSt12_Vector_baseIPiSaIS0_EE19_M_get_Tp_allocatorEv
FN:123,_ZNKSt12_Vector_baseIPiSaIS0_EE13get_allocatorEv
FN:126,_ZNSt12_Vector_baseIPiSaIS0_EEC2Ev
FN:126,_ZNSt12_Vector_baseINSt7__cxx1112basic_stringIcSt11char_traitsIcESaIcEEESaIS5_EEC2Ev
FN:126,_ZNSt12_Vector_baseIPN10ObjHandler8Vector3fESaIS2_EEC2Ev
FN:129,_ZNSt12_Vector_baseIPiSaIS0_EEC2ERKS1_
FN:161,_ZNSt12_Vector_baseIPN10ObjHandler8Vector3fESaIS2_EED2Ev
FN:161,_ZNSt12_Vector_baseINSt7__cxx1112basic_stringIcSt11char_traitsIcESaIcEEESaIS5_EED2Ev
FN:161,_ZNSt12_Vector_baseIPiSaIS0_EED2Ev
FN:169,_ZNSt12_Vector_baseIPiSaIS0_EE11_M_allocateEm
FN:169,_ZNSt12_Vector_baseIPN10ObjHandler8Vector3fESaIS2_EE11_M_allocateEm
FN:169,_ZNSt12_Vector_baseINSt7__cxx1112basic_stringIcSt11char_traitsIcESaIcEEESaIS5_EE11_M_allocateEm
FN:176,_ZNSt12_Vector_baseIPN10ObjHandler8Vector3fESaIS2_EE13_M_deallocateEPS2_m
FN:176,_ZNSt12_Vector_baseIPiSaIS0_EE13_M_deallocateEPS0_m
FN:176,_ZNSt12_Vector_baseINSt7__cxx1112basic_stringIcSt11char_traitsIcESaIcEEESaIS5_EE13_M_deallocateEPS5_m
FN:259,_ZNSt6vectorINSt7__cxx1112basic_stringIcSt11char_traitsIcESaIcEEESaIS5_EEC2Ev
FN:259,_ZNSt6vectorIPN10ObjHandler8Vector3fESaIS2_EEC2Ev
FN:259,_ZNSt6vectorIPiSaIS0_EEC2Ev
FN:270,_ZNSt6vectorIPiSaIS0_EEC2ERKS1_
FN:433,_ZNSt6vectorINSt7__cxx1112basic_stringIcSt11char_traitsIcESaIcEEESaIS5_EED2Ev
FN:433,_ZNSt6vectorIPiSaIS0_EED2Ev
FN:433,_ZNSt6vectorIPN10ObjHandler8Vector3fESaIS2_EED2Ev
FN:461,_ZNSt6vectorIPiSaIS0_EEaSEOS2_
FN:563,_ZNSt6vectorIPiSaIS0_EE5beginEv
FN:563,_ZNSt6vectorIPN10ObjHandler8Vector3fESaIS2_EE5beginEv
FN:563,_ZNSt6vectorINSt7__cxx1112basic_stringIcSt11char_traitsIcESaIcEEESaIS5_EE5beginEv
FN:581,_ZNSt6vectorIPiSaIS0_EE3endEv
FN:581,_ZNSt6vectorIPN10ObjHandler8Vector3fESaIS2_EE3endEv
FN:581,_ZNSt6vectorINSt7__cxx1112basic_stringIcSt11char_traitsIcESaIcEEESaIS5_EE3endEv
FN:670,_ZNKSt6vectorIPN10ObjHandler8Vector3fESaIS2_EE4sizeEv
FN:670,_ZNKSt6vectorIPiSaIS0_EE4sizeEv
FN:670,_ZNKSt6vectorINSt7__cxx1112basic_stringIcSt11char_traitsIcESaIcEEESaIS5_EE4sizeEv
FN:675,_ZNKSt6vectorIPiSaIS0_EE8max_sizeEv
FN:675,_ZNKSt6vectorINSt7__cxx1112basic_stringIcSt11char_traitsIcESaIcEEESaIS5_EE8max_sizeEv
FN:675,_ZNKSt6vectorIPN10ObjHandler8Vector3fESaIS2_EE8max_sizeEv
FN:689,_ZNSt6vectorIPN10ObjHandler8Vector3fESaIS2_EE6resizeEm
FN:689,_ZNSt6vectorIPiSaIS0_EE6resizeEm
FN:795,_ZNSt6vectorIPN10ObjHandler8Vector3fESaIS2_EEixEm
FN:795,_ZNSt6vectorINSt7__cxx1112basic_stringIcSt11char_traitsIcESaIcEEESaIS5_EEixEm
FN:795,_ZNSt6vectorIPiSaIS0_EEixEm
FN:939,_ZNSt6vectorIPiSaIS0_EE9push_backERKS0_
FN:939,_ZNSt6vectorINSt7__cxx1112basic_stringIcSt11char_traitsIcESaIcEEESaIS5_EE9push_backERKS5_
FN:953,_ZNSt6vectorIPN10ObjHandler8Vector3fESaIS2_EE9push_backEOS2_
FN:1502,_ZNKSt6vectorIPN10ObjHandler8Vector3fESaIS2_EE12_M_check_lenEmPKc
FN:1502,_ZNKSt6vectorIPiSaIS0_EE12_M_check_lenEmPKc
FN:1502,_ZNKSt6vectorINSt7__cxx1112basic_stringIcSt11char_traitsIcESaIcEEESaIS5_EE12_M_check_lenEmPKc
FN:1516,_ZNSt6vectorIPN10ObjHandler8Vector3fESaIS2_EE15_M_erase_at_endEPS2_
FN:1516,_ZNSt6vectorIPiSaIS0_EE15_M_erase_at_endEPS0_
FN:1534,_ZNSt6vectorIPiSaIS0_EE14_M_move_assignEOS2_St17integral_constantIbLb1EE
FNDA:0,_ZNSt12_Vector_baseINSt7__cxx1112basic_stringIcSt11char_traitsIcESaIcEEESaIS5_EE12_Vector_implD2Ev
FNDA:0,_ZNSt12_Vector_baseIPiSaIS0_EE12_Vector_implD2Ev
FNDA:0,_ZNSt12_Vector_baseIPN10ObjHandler8Vector3fESaIS2_EE12_Vector_implD2Ev
FNDA:0,_ZNSt12_Vector_baseIPiSaIS0_EE12_Vector_implC2Ev
FNDA:0,_ZNSt12_Vector_baseINSt7__cxx1112basic_stringIcSt11char_traitsIcESaIcEEESaIS5_EE12_Vector_implC2Ev
FNDA:0,_ZNSt12_Vector_baseIPN10ObjHandler8Vector3fESaIS2_EE12_Vector_implC2Ev
FNDA:0,_ZNSt12_Vector_baseIPiSaIS0_EE12_Vector_implC2ERKS1_
FNDA:0,_ZNSt12_Vector_baseIPiSaIS0_EE12_Vector_impl12_M_swap_dataERS3_
FNDA:0,_ZNSt12_Vector_baseINSt7__cxx1112basic_stringIcSt11char_traitsIcESaIcEEESaIS5_EE19_M_get_Tp_allocatorEv
FNDA:0,_ZNSt12_Vector_baseIPiSaIS0_EE19_M_get_Tp_allocatorEv
FNDA:0,_ZNSt12_Vector_baseIPN10ObjHandler8Vector3fESaIS2_EE19_M_get_Tp_allocatorEv
FNDA:0,_ZNKSt12_Vector_baseINSt7__cxx1112basic_stringIcSt11char_traitsIcESaIcEEESaIS5_EE19_M_get_Tp_allocatorEv
FNDA:0,_ZNKSt12_Vector_baseIPN10ObjHandler8Vector3fESaIS2_EE19_M_get_Tp_allocatorEv
FNDA:0,_ZNKSt12_Vector_baseIPiSaIS0_EE19_M_get_Tp_allocatorEv
FNDA:0,_ZNKSt12_Vector_baseIPiSaIS0_EE13get_allocatorEv
FNDA:0,_ZNSt12_Vector_baseIPiSaIS0_EEC2Ev
FNDA:0,_ZNSt12_Vector_baseINSt7__cxx1112basic_stringIcSt11char_traitsIcESaIcEEESaIS5_EEC2Ev
FNDA:0,_ZNSt12_Vector_baseIPN10ObjHandler8Vector3fESaIS2_EEC2Ev
FNDA:0,_ZNSt12_Vector_baseIPiSaIS0_EEC2ERKS1_
FNDA:0,_ZNSt12_Vector_baseINSt7__cxx1112basic_stringIcSt11char_traitsIcESaIcEEESaIS5_EED2Ev
FNDA:0,_ZNSt12_Vector_baseIPiSaIS0_EED2Ev
FNDA:0,_ZNSt12_Vector_baseIPN10ObjHandler8Vector3fESaIS2_EED2Ev
FNDA:0,_ZNSt12_Vector_baseINSt7__cxx1112basic_stringIcSt11char_traitsIcESaIcEEESaIS5_EE11_M_allocateEm
FNDA:0,_ZNSt12_Vector_baseIPiSaIS0_EE11_M_allocateEm
FNDA:0,_ZNSt12_Vector_baseIPN10ObjHandler8Vector3fESaIS2_EE11_M_allocateEm
FNDA:0,_ZNSt12_Vector_baseINSt7__cxx1112basic_stringIcSt11char_traitsIcESaIcEEESaIS5_EE13_M_deallocateEPS5_m
FNDA:0,_ZNSt12_Vector_baseIPiSaIS0_EE13_M_deallocateEPS0_m
FNDA:0,_ZNSt12_Vector_baseIPN10ObjHandler8Vector3fESaIS2_EE13_M_deallocateEPS2_m
FNDA:0,_ZNSt6vectorIPiSaIS0_EEC2Ev
FNDA:0,_ZNSt6vectorINSt7__cxx1112basic_stringIcSt11char_traitsIcESaIcEEESaIS5_EEC2Ev
FNDA:0,_ZNSt6vectorIPN10ObjHandler8Vector3fESaIS2_EEC2Ev
FNDA:0,_ZNSt6vectorIPiSaIS0_EEC2ERKS1_
FNDA:0,_ZNSt6vectorINSt7__cxx1112basic_stringIcSt11char_traitsIcESaIcEEESaIS5_EED2Ev
FNDA:0,_ZNSt6vectorIPiSaIS0_EED2Ev
FNDA:0,_ZNSt6vectorIPN10ObjHandler8Vector3fESaIS2_EED2Ev
FNDA:0,_ZNSt6vectorIPiSaIS0_EEaSEOS2_
FNDA:0,_ZNSt6vectorINSt7__cxx1112basic_stringIcSt11char_traitsIcESaIcEEESaIS5_EE5beginEv
FNDA:0,_ZNSt6vectorIPiSaIS0_EE5beginEv
FNDA:0,_ZNSt6vectorIPN10ObjHandler8Vector3fESaIS2_EE5beginEv
FNDA:0,_ZNSt6vectorINSt7__cxx1112basic_stringIcSt11char_traitsIcESaIcEEESaIS5_EE3endEv
FNDA:0,_ZNSt6vectorIPiSaIS0_EE3endEv
FNDA:0,_ZNSt6vectorIPN10ObjHandler8Vector3fESaIS2_EE3endEv
FNDA:0,_ZNKSt6vectorIPiSaIS0_EE4sizeEv
FNDA:0,_ZNKSt6vectorIPN10ObjHandler8Vector3fESaIS2_EE4sizeEv
FNDA:0,_ZNKSt6vectorINSt7__cxx1112basic_stringIcSt11char_traitsIcESaIcEEESaIS5_EE4sizeEv
FNDA:0,_ZNKSt6vectorINSt7__cxx1112basic_stringIcSt11char_traitsIcESaIcEEESaIS5_EE8max_sizeEv
FNDA:0,_ZNKSt6vectorIPiSaIS0_EE8max_sizeEv
FNDA:0,_ZNKSt6vectorIPN10ObjHandler8Vector3fESaIS2_EE8max_sizeEv
FNDA:0,_ZNSt6vectorIPiSaIS0_EE6resizeEm
FNDA:0,_ZNSt6vectorIPN10ObjHandler8Vector3fESaIS2_EE6resizeEm
FNDA:0,_ZNSt6vectorIPN10ObjHandler8Vector3fESaIS2_EEixEm
FNDA:0,_ZNSt6vectorIPiSaIS0_EEixEm
FNDA:0,_ZNSt6vectorINSt7__cxx1112basic_stringIcSt11char_traitsIcESaIcEEESaIS5_EEixEm
FNDA:0,_ZNSt6vectorIPiSaIS0_EE9push_backERKS0_
FNDA:0,_ZNSt6vectorINSt7__cxx1112basic_stringIcSt11char_traitsIcESaIcEEESaIS5_EE9push_backERKS5_
FNDA:0,_ZNSt6vectorIPN10ObjHandler8Vector3fESaIS2_EE9push_backEOS2_
FNDA:0,_ZNKSt6vectorINSt7__cxx1112basic_stringIcSt11char_traitsIcESaIcEEESaIS5_EE12_M_check_lenEmPKc
FNDA:0,_ZNKSt6vectorIPiSaIS0_EE12_M_check_lenEmPKc
FNDA:0,_ZNKSt6vectorIPN10ObjHandler8Vector3fESaIS2_EE12_M_check_lenEmPKc
FNDA:0,_ZNSt6vectorIPiSaIS0_EE15_M_erase_at_endEPS0_
FNDA:0,_ZNSt6vectorIPN10ObjHandler8Vector3fESaIS2_EE15_M_erase_at_endEPS2_
FNDA:0,_ZNSt6vectorIPiSaIS0_EE14_M_move_assignEOS2_St17integral_constantIbLb1EE
FNF:62
FNH:0
DA:81,0
DA:88,0
DA:89,0
DA:90,0
DA:92,0
DA:93,0
DA:94,0
DA:103,0
DA:105,0
DA:106,0
DA:107,0
DA:108,0
DA:115,0
DA:116,0
DA:119,0
DA:120,0
DA:123,0
DA:124,0
DA:126,0
DA:127,0
DA:129,0
DA:130,0
DA:161,0
DA:162,0
DA:163,0
DA:169,0
DA:172,0
DA:176,0
DA:179,0
DA:180,0
DA:181,0
DA:259,0
DA:263,0
DA:270,0
DA:271,0
DA:433,0
DA:434,0
DA:435,0
DA:461,0
DA:463,0
DA:466,0
DA:467,0
DA:563,0
DA:564,0
DA:581,0
DA:582,0
DA:670,0
DA:671,0
DA:675,0
DA:676,0
DA:689,0
DA:691,0
DA:692,0
DA:693,0
DA:694,0
DA:695,0
DA:795,0
DA:798,0
DA:939,0
DA:941,0
DA:943,0
DA:945,0
DA:948,0
DA:949,0
DA:953,0
DA:954,0
DA:1502,0
DA:1504,0
DA:1505,0
DA:1507,0
DA:1508,0
DA:1516,0
DA:1518,0
DA:1519,0
DA:1520,0
DA:1534,0
DA:1536,0
DA:1537,0
DA:1538,0
DA:1539,0
DA:1540,0
LF:81
LH:0
end_of_record
SF:/usr/include/c++/7/bits/vector.tcc
FN:95,_ZNSt6vectorIPN10ObjHandler8Vector3fESaIS2_EE12emplace_backIJS2_EEEvDpOT_
FN:394,_ZNSt6vectorIPN10ObjHandler8Vector3fESaIS2_EE17_M_realloc_insertIJS2_EEEvN9__gnu_cxx17__normal_iteratorIPS2_S4_EEDpOT_
FN:394,_ZNSt6vectorINSt7__cxx1112basic_stringIcSt11char_traitsIcESaIcEEESaIS5_EE17_M_realloc_insertIJRKS5_EEEvN9__gnu_cxx17__normal_iteratorIPS5_S7_EEDpOT_
FN:394,_ZNSt6vectorIPiSaIS0_EE17_M_realloc_insertIJRKS0_EEEvN9__gnu_cxx17__normal_iteratorIPS0_S2_EEDpOT_
FN:554,_ZNSt6vectorIPN10ObjHandler8Vector3fESaIS2_EE17_M_default_appendEm
FN:554,_ZNSt6vectorIPiSaIS0_EE17_M_default_appendEm
FNDA:0,_ZNSt6vectorIPN10ObjHandler8Vector3fESaIS2_EE12emplace_backIJS2_EEEvDpOT_
FNDA:0,_ZNSt6vectorIPN10ObjHandler8Vector3fESaIS2_EE17_M_realloc_insertIJS2_EEEvN9__gnu_cxx17__normal_iteratorIPS2_S4_EEDpOT_
FNDA:0,_ZNSt6vectorIPiSaIS0_EE17_M_realloc_insertIJRKS0_EEEvN9__gnu_cxx17__normal_iteratorIPS0_S2_EEDpOT_
FNDA:0,_ZNSt6vectorINSt7__cxx1112basic_stringIcSt11char_traitsIcESaIcEEESaIS5_EE17_M_realloc_insertIJRKS5_EEEvN9__gnu_cxx17__normal_iteratorIPS5_S7_EEDpOT_
FNDA:0,_ZNSt6vectorIPiSaIS0_EE17_M_default_appendEm
FNDA:0,_ZNSt6vectorIPN10ObjHandler8Vector3fESaIS2_EE17_M_default_appendEm
FNF:6
FNH:0
DA:95,0
DA:98,0
DA:100,0
DA:102,0
DA:105,0
DA:109,0
DA:394,0
DA:403,0
DA:405,0
DA:406,0
DA:407,0
DA:415,0
DA:416,0
DA:422,0
DA:424,0
DA:426,0
DA:427,0
DA:429,0
DA:431,0
DA:433,0
DA:434,0
DA:436,0
DA:438,0
DA:439,0
DA:440,0
DA:442,0
DA:443,0
DA:444,0
DA:446,0
DA:447,0
DA:448,0
DA:449,0
DA:450,0
DA:451,0
DA:452,0
DA:453,0
DA:454,0
DA:554,0
DA:557,0
DA:559,0
DA:560,0
DA:562,0
DA:563,0
DA:564,0
DA:568,0
DA:570,0
DA:571,0
DA:572,0
DA:575,0
DA:576,0
DA:577,0
DA:578,0
DA:580,0
DA:582,0
DA:584,0
DA:585,0
DA:586,0
DA:587,0
DA:588,0
DA:590,0
DA:591,0
DA:592,0
DA:593,0
DA:594,0
DA:595,0
DA:596,0
DA:597,0
DA:600,0
LF:68
LH:0
end_of_record
SF:/usr/include/c++/7/ext/new_allocator.h
FN:79,_ZN9__gnu_cxx13new_allocatorIPN10ObjHandler8Vector3fEEC2Ev
FN:79,_ZN9__gnu_cxx13new_allocatorINSt7__cxx1112basic_stringIcSt11char_traitsIcESaIcEEEEC2Ev
FN:79,_ZN9__gnu_cxx13new_allocatorIPiEC2Ev
FN:81,_ZN9__gnu_cxx13new_allocatorIPiEC2ERKS2_
FN:86,_ZN9__gnu_cxx13new_allocatorIPN10ObjHandler8Vector3fEED2Ev
FN:86,_ZN9__gnu_cxx13new_allocatorIPiED2Ev
FN:86,_ZN9__gnu_cxx13new_allocatorINSt7__cxx1112basic_stringIcSt11char_traitsIcESaIcEEEED2Ev
FN:99,_ZN9__gnu_cxx13new_allocatorIPiE8allocateEmPKv
FN:99,_ZN9__gnu_cxx13new_allocatorINSt7__cxx1112basic_stringIcSt11char_traitsIcESaIcEEEE8allocateEmPKv
FN:99,_ZN9__gnu_cxx13new_allocatorIPN10ObjHandler8Vector3fEE8allocateEmPKv
FN:116,_ZN9__gnu_cxx13new_allocatorIPN10ObjHandler8Vector3fEE10deallocateEPS3_m
FN:116,_ZN9__gnu_cxx13new_allocatorINSt7__cxx1112basic_stringIcSt11char_traitsIcESaIcEEEE10deallocateEPS6_m
FN:116,_ZN9__gnu_cxx13new_allocatorIPiE10deallocateEPS1_m
FN:129,_ZNK9__gnu_cxx13new_allocatorIPN10ObjHandler8Vector3fEE8max_sizeEv
FN:129,_ZNK9__gnu_cxx13new_allocatorINSt7__cxx1112basic_stringIcSt11char_traitsIcESaIcEEEE8max_sizeEv
FN:129,_ZNK9__gnu_cxx13new_allocatorIPiE8max_sizeEv
FN:135,_ZN9__gnu_cxx13new_allocatorINSt7__cxx1112basic_stringIcSt11char_traitsIcESaIcEEEE9constructIS6_JRKS6_EEEvPT_DpOT0_
FN:135,_ZN9__gnu_cxx13new_allocatorIPN10ObjHandler8Vector3fEE9constructIS3_JS3_EEEvPT_DpOT0_
FN:135,_ZN9__gnu_cxx13new_allocatorIPiE9constructIS1_JRKS1_EEEvPT_DpOT0_
FN:140,_ZN9__gnu_cxx13new_allocatorIPN10ObjHandler8Vector3fEE7destroyIS3_EEvPT_
FN:140,_ZN9__gnu_cxx13new_allocatorIPiE7destroyIS1_EEvPT_
FN:140,_ZN9__gnu_cxx13new_allocatorINSt7__cxx1112basic_stringIcSt11char_traitsIcESaIcEEEE7destroyIS6_EEvPT_
FNDA:0,_ZN9__gnu_cxx13new_allocatorIPiEC2Ev
FNDA:0,_ZN9__gnu_cxx13new_allocatorINSt7__cxx1112basic_stringIcSt11char_traitsIcESaIcEEEEC2Ev
FNDA:0,_ZN9__gnu_cxx13new_allocatorIPN10ObjHandler8Vector3fEEC2Ev
FNDA:0,_ZN9__gnu_cxx13new_allocatorIPiEC2ERKS2_
FNDA:0,_ZN9__gnu_cxx13new_allocatorINSt7__cxx1112basic_stringIcSt11char_traitsIcESaIcEEEED2Ev
FNDA:0,_ZN9__gnu_cxx13new_allocatorIPiED2Ev
FNDA:0,_ZN9__gnu_cxx13new_allocatorIPN10ObjHandler8Vector3fEED2Ev
FNDA:0,_ZN9__gnu_cxx13new_allocatorINSt7__cxx1112basic_stringIcSt11char_traitsIcESaIcEEEE8allocateEmPKv
FNDA:0,_ZN9__gnu_cxx13new_allocatorIPiE8allocateEmPKv
FNDA:0,_ZN9__gnu_cxx13new_allocatorIPN10ObjHandler8Vector3fEE8allocateEmPKv
FNDA:0,_ZN9__gnu_cxx13new_allocatorINSt7__cxx1112basic_stringIcSt11char_traitsIcESaIcEEEE10deallocateEPS6_m
FNDA:0,_ZN9__gnu_cxx13new_allocatorIPiE10deallocateEPS1_m
FNDA:0,_ZN9__gnu_cxx13new_allocatorIPN10ObjHandler8Vector3fEE10deallocateEPS3_m
FNDA:0,_ZNK9__gnu_cxx13new_allocatorINSt7__cxx1112basic_stringIcSt11char_traitsIcESaIcEEEE8max_sizeEv
FNDA:0,_ZNK9__gnu_cxx13new_allocatorIPiE8max_sizeEv
FNDA:0,_ZNK9__gnu_cxx13new_allocatorIPN10ObjHandler8Vector3fEE8max_sizeEv
FNDA:0,_ZN9__gnu_cxx13new_allocatorIPN10ObjHandler8Vector3fEE9constructIS3_JS3_EEEvPT_DpOT0_
FNDA:0,_ZN9__gnu_cxx13new_allocatorIPiE9constructIS1_JRKS1_EEEvPT_DpOT0_
FNDA:0,_ZN9__gnu_cxx13new_allocatorINSt7__cxx1112basic_stringIcSt11char_traitsIcESaIcEEEE9constructIS6_JRKS6_EEEvPT_DpOT0_
FNDA:0,_ZN9__gnu_cxx13new_allocatorIPN10ObjHandler8Vector3fEE7destroyIS3_EEvPT_
FNDA:0,_ZN9__gnu_cxx13new_allocatorIPiE7destroyIS1_EEvPT_
FNDA:0,_ZN9__gnu_cxx13new_allocatorINSt7__cxx1112basic_stringIcSt11char_traitsIcESaIcEEEE7destroyIS6_EEvPT_
FNF:22
FNH:0
DA:79,0
DA:81,0
DA:86,0
DA:99,0
DA:101,0
DA:102,0
DA:111,0
DA:116,0
DA:125,0
DA:126,0
DA:129,0
DA:130,0
DA:135,0
DA:136,0
DA:140,0
LF:15
LH:0
end_of_record
SF:/usr/include/c++/7/ext/string_conversions.h
FN:54,_ZN9__gnu_cxx6__stoaIffcJEEET0_PFT_PKT1_PPS3_DpT2_EPKcS5_PmS9_
FN:63,_ZZN9__gnu_cxx6__stoaIffcJEEET0_PFT_PKT1_PPS3_DpT2_EPKcS5_PmS9_EN11_Save_errnoC2Ev
FN:64,_ZZN9__gnu_cxx6__stoaIffcJEEET0_PFT_PKT1_PPS3_DpT2_EPKcS5_PmS9_EN11_Save_errnoD2Ev
FN:70,_ZZN9__gnu_cxx6__stoaIffcJEEET0_PFT_PKT1_PPS3_DpT2_EPKcS5_PmS9_EN10_Range_chk6_S_chkEfSt17integral_constantIbLb0EE
FNDA:0,_ZN9__gnu_cxx6__stoaIffcJEEET0_PFT_PKT1_PPS3_DpT2_EPKcS5_PmS9_
FNDA:0,_ZZN9__gnu_cxx6__stoaIffcJEEET0_PFT_PKT1_PPS3_DpT2_EPKcS5_PmS9_EN11_Save_errnoC2Ev
FNDA:0,_ZZN9__gnu_cxx6__stoaIffcJEEET0_PFT_PKT1_PPS3_DpT2_EPKcS5_PmS9_EN11_Save_errnoD2Ev
FNDA:0,_ZZN9__gnu_cxx6__stoaIffcJEEET0_PFT_PKT1_PPS3_DpT2_EPKcS5_PmS9_EN10_Range_chk6_S_chkEfSt17integral_constantIbLb0EE
FNF:4
FNH:0
DA:54,0
DA:63,0
DA:64,0
DA:66,0
DA:70,0
DA:80,0
DA:82,0
DA:83,0
DA:84,0
DA:85,0
DA:86,0
DA:88,0
DA:90,0
DA:91,0
DA:93,0
LF:15
LH:0
end_of_record
SF:/usr/include/c++/7/iostream
DA:74,1
LF:1
LH:1
end_of_record
SF:/usr/include/c++/7/new
FN:168,_ZnwmPv
FN:174,_ZdlPvS_
FNDA:0,_ZnwmPv
FNDA:0,_ZdlPvS_
FNF:2
FNH:0
DA:168,0
DA:169,0
DA:174,0
LF:3
LH:0
end_of_record
SF:/home/mentathiel/Documents/Faks/IV/azrs/RGChess/RG136-chess/ObjHandler.cc
FN:5,_ZN10ObjHandlerD2Ev
FN:19,_ZN10ObjHandler9loadModelEPKc
FN:193,_ZN10ObjHandler9tokenizeFENSt7__cxx1112basic_stringIcSt11char_traitsIcESaIcEEE
FN:223,_ZN10ObjHandler4drawEv
FN:231,_Z41__static_initialization_and_destruction_0ii
FN:231,_GLOBAL__sub_I__ZN10ObjHandlerD2Ev
FNDA:0,_ZN10ObjHandlerD2Ev
FNDA:0,_ZN10ObjHandler9loadModelEPKc
FNDA:0,_ZN10ObjHandler9tokenizeFENSt7__cxx1112basic_stringIcSt11char_traitsIcESaIcEEE
FNDA:0,_ZN10ObjHandler4drawEv
FNDA:1,_GLOBAL__sub_I__ZN10ObjHandlerD2Ev
FNDA:1,_Z41__static_initialization_and_destruction_0ii
FNF:6
FNH:2
DA:5,0
DA:6,0
DA:7,0
DA:8,0
DA:9,0
DA:10,0
DA:11,0
DA:13,0
DA:15,0
DA:16,0
DA:17,0
DA:19,0
DA:22,0
DA:23,0
DA:24,0
DA:25,0
DA:26,0
DA:27,0
DA:29,0
DA:31,0
DA:32,0
DA:35,0
DA:36,0
DA:37,0
DA:38,0
DA:39,0
DA:43,0
DA:45,0
DA:46,0
DA:48,0
DA:50,0
DA:51,0
DA:54,0
DA:55,0
DA:56,0
DA:57,0
DA:58,0
DA:68,0
DA:69,0
DA:70,0
DA:72,0
DA:74,0
DA:75,0
DA:77,0
DA:78,0
DA:82,0
DA:84,0
DA:89,0
DA:91,0
DA:93,0
DA:95,0
DA:97,0
DA:99,0
DA:100,0
DA:101,0
DA:102,0
DA:105,0
DA:106,0
DA:107,0
DA:108,0
DA:109,0
DA:110,0
DA:117,0
DA:118,0
DA:119,0
DA:120,0
DA:121,0
DA:122,0
DA:124,0
DA:125,0
DA:127,0
DA:129,0
DA:130,0
DA:131,0
DA:133,0
DA:134,0
DA:135,0
DA:137,0
DA:138,0
DA:139,0
DA:141,0
DA:142,0
DA:143,0
DA:144,0
DA:145,0
DA:146,0
DA:148,0
DA:149,0
DA:150,0
DA:152,0
DA:157,0
DA:159,0
DA:160,0
DA:161,0
DA:162,0
DA:164,0
DA:165,0
DA:166,0
DA:168,0
DA:169,0
DA:170,0
DA:173,0
DA:174,0
DA:175,0
DA:176,0
DA:177,0
DA:178,0
DA:179,0
DA:180,0
DA:181,0
DA:183,0
DA:184,0
DA:185,0
DA:189,0
DA:190,0
DA:193,0
DA:194,0
DA:196,0
DA:197,0
DA:199,0
DA:200,0
DA:202,0
DA:203,0
DA:204,0
DA:205,0
DA:206,0
DA:209,0
DA:210,0
DA:213,0
DA:217,0
DA:218,0
DA:220,0
DA:223,0
DA:224,0
DA:225,0
DA:227,0
DA:228,0
DA:230,0
DA:231,3
LF:139
LH:1
end_of_record
TN:
SF:/usr/include/c++/7/iostream
DA:74,1
LF:1
LH:1
end_of_record
SF:/usr/include/c++/7/typeinfo
FN:120,_ZNKSt9type_infoeqERKS_
FN:136,_ZNKSt9type_infoneERKS_
FNDA:0,_ZNKSt9type_infoeqERKS_
FNDA:0,_ZNKSt9type_infoneERKS_
FNF:2
FNH:0
DA:120,0
DA:122,0
DA:123,0
DA:124,0
DA:136,0
DA:137,0
LF:6
LH:0
end_of_record
SF:/home/mentathiel/Documents/Faks/IV/azrs/RGChess/RG136-chess/Move.cc
FN:6,_ZN4MoveC2EP5FieldP10ChessPiece10Chessboard
FN:14,_ZN4Move8toStringB5cxx11Ev
FN:29,_Z41__static_initialization_and_destruction_0ii
FN:29,_GLOBAL__sub_I__ZN4MoveC2EP5FieldP10ChessPiece10Chessboard
FNDA:17,_ZN4MoveC2EP5FieldP10ChessPiece10Chessboard
FNDA:0,_ZN4Move8toStringB5cxx11Ev
FNDA:1,_GLOBAL__sub_I__ZN4MoveC2EP5FieldP10ChessPiece10Chessboard
FNDA:1,_Z41__static_initialization_and_destruction_0ii
FNF:4
FNH:3
DA:6,17
DA:7,17
DA:8,17
DA:9,17
DA:14,0
DA:15,0
DA:17,0
DA:18,0
DA:19,0
DA:20,0
DA:23,0
DA:24,0
DA:27,0
DA:28,0
DA:29,3
LF:15
LH:5
end_of_record
TN:
SF:/usr/include/c++/7/bits/alloc_traits.h
FN:435,_ZNSt16allocator_traitsISaISt10_List_nodeIP5FieldEEE8allocateERS4_m
FN:461,_ZNSt16allocator_traitsISaISt10_List_nodeIP5FieldEEE10deallocateERS4_PS3_m
FN:474,_ZNSt16allocator_traitsISaISt10_List_nodeIP5FieldEEE9constructIS2_JRKS2_EEEvRS4_PT_DpOT0_
FN:486,_ZNSt16allocator_traitsISaISt10_List_nodeIP5FieldEEE7destroyIS2_EEvRS4_PT_
FNDA:1025,_ZNSt16allocator_traitsISaISt10_List_nodeIP5FieldEEE8allocateERS4_m
FNDA:0,_ZNSt16allocator_traitsISaISt10_List_nodeIP5FieldEEE10deallocateERS4_PS3_m
FNDA:1025,_ZNSt16allocator_traitsISaISt10_List_nodeIP5FieldEEE9constructIS2_JRKS2_EEEvRS4_PT_DpOT0_
FNDA:0,_ZNSt16allocator_traitsISaISt10_List_nodeIP5FieldEEE7destroyIS2_EEvRS4_PT_
FNF:4
FNH:2
DA:435,1025
DA:436,1025
DA:461,0
DA:462,0
DA:474,1025
DA:475,1025
DA:486,0
DA:487,0
LF:8
LH:4
end_of_record
SF:/usr/include/c++/7/bits/allocated_ptr.h
FN:52,_ZNSt15__allocated_ptrISaISt10_List_nodeIP5FieldEEEC2ERS4_PS3_
FN:70,_ZNSt15__allocated_ptrISaISt10_List_nodeIP5FieldEEED2Ev
FN:78,_ZNSt15__allocated_ptrISaISt10_List_nodeIP5FieldEEEaSEDn
FNDA:1025,_ZNSt15__allocated_ptrISaISt10_List_nodeIP5FieldEEEC2ERS4_PS3_
FNDA:1025,_ZNSt15__allocated_ptrISaISt10_List_nodeIP5FieldEEED2Ev
FNDA:1025,_ZNSt15__allocated_ptrISaISt10_List_nodeIP5FieldEEEaSEDn
FNF:3
FNH:3
DA:52,1025
DA:53,1025
DA:54,1025
DA:70,1025
DA:72,1025
DA:73,0
DA:74,1025
DA:78,1025
DA:80,1025
DA:81,1025
LF:10
LH:9
end_of_record
SF:/usr/include/c++/7/bits/allocator.h
FN:131,_ZNSaISt10_List_nodeIP5FieldEEC2Ev
FN:139,_ZNSaISt10_List_nodeIP5FieldEED2Ev
FNDA:441,_ZNSaISt10_List_nodeIP5FieldEEC2Ev
FNDA:0,_ZNSaISt10_List_nodeIP5FieldEED2Ev
FNF:2
FNH:1
DA:131,441
DA:139,0
LF:2
LH:1
end_of_record
SF:/usr/include/c++/7/bits/list.tcc
FN:65,_ZNSt7__cxx1110_List_baseIP5FieldSaIS2_EE8_M_clearEv
FNDA:0,_ZNSt7__cxx1110_List_baseIP5FieldSaIS2_EE8_M_clearEv
FNF:1
FNH:0
DA:65,0
DA:69,0
DA:70,0
DA:72,0
DA:73,0
DA:74,0
DA:76,0
DA:80,0
DA:82,0
LF:9
LH:0
end_of_record
SF:/usr/include/c++/7/bits/move.h
FN:47,_ZSt11__addressofISaISt10_List_nodeIP5FieldEEEPT_RS5_
FN:73,_ZSt7forwardIRKP5FieldEOT_RNSt16remove_referenceIS4_E4typeE
FNDA:1025,_ZSt11__addressofISaISt10_List_nodeIP5FieldEEEPT_RS5_
FNDA:4100,_ZSt7forwardIRKP5FieldEOT_RNSt16remove_referenceIS4_E4typeE
FNF:2
FNH:2
DA:47,1025
DA:48,1025
DA:73,4100
DA:74,4100
LF:4
LH:4
end_of_record
SF:/usr/include/c++/7/bits/stl_list.h
FN:113,_ZNSt10_List_nodeIP5FieldE9_M_valptrEv
FN:113,_ZNSt10_List_nodeImE9_M_valptrEv
FN:143,_ZNSt14_List_iteratorIP5FieldEC2EPNSt8__detail15_List_node_baseE
FN:323,_ZNSt7__cxx1110_List_baseIP5FieldSaIS2_EE10_List_implD2Ev
FN:332,_ZNSt7__cxx1110_List_baseIP5FieldSaIS2_EE10_List_implC2Ev
FN:352,_ZNSt7__cxx1110_List_baseIP5FieldSaIS2_EE11_M_set_sizeEm
FN:354,_ZNSt7__cxx1110_List_baseIP5FieldSaIS2_EE11_M_inc_sizeEm
FN:382,_ZNSt7__cxx1110_List_baseIP5FieldSaIS2_EE11_M_get_nodeEv
FN:386,_ZNSt7__cxx1110_List_baseIP5FieldSaIS2_EE11_M_put_nodeEPSt10_List_nodeIS2_E
FN:393,_ZNSt7__cxx1110_List_baseIP5FieldSaIS2_EE21_M_get_Node_allocatorEv
FN:400,_ZNSt7__cxx1110_List_baseIP5FieldSaIS2_EEC2Ev
FN:441,_ZNSt7__cxx1110_List_baseIP5FieldSaIS2_EED2Ev
FN:448,_ZNSt7__cxx1110_List_baseIP5FieldSaIS2_EE7_M_initEv
FN:570,_ZNSt7__cxx114listIP5FieldSaIS2_EE14_M_create_nodeIJRKS2_EEEPSt10_List_nodeIS2_EDpOT_
FN:589,_ZNSt7__cxx114listIP5FieldSaIS2_EEC2Ev
FN:733,_ZNSt7__cxx114listIP5FieldSaIS2_EED2Ev
FN:869,_ZNSt7__cxx114listIP5FieldSaIS2_EE3endEv
FN:1117,_ZNSt7__cxx114listIP5FieldSaIS2_EE9push_backERKS2_
FN:1799,_ZNSt7__cxx114listIP5FieldSaIS2_EE9_M_insertIJRKS2_EEEvSt14_List_iteratorIS2_EDpOT_
FNDA:1480,_ZNSt10_List_nodeImE9_M_valptrEv
FNDA:0,_ZNSt10_List_nodeIP5FieldE9_M_valptrEv
FNDA:0,_ZNSt14_List_iteratorIP5FieldEC2EPNSt8__detail15_List_node_baseE
FNDA:0,_ZNSt7__cxx1110_List_baseIP5FieldSaIS2_EE10_List_implD2Ev
FNDA:441,_ZNSt7__cxx1110_List_baseIP5FieldSaIS2_EE10_List_implC2Ev
FNDA:441,_ZNSt7__cxx1110_List_baseIP5FieldSaIS2_EE11_M_set_sizeEm
FNDA:1025,_ZNSt7__cxx1110_List_baseIP5FieldSaIS2_EE11_M_inc_sizeEm
FNDA:1025,_ZNSt7__cxx1110_List_baseIP5FieldSaIS2_EE11_M_get_nodeEv
FNDA:0,_ZNSt7__cxx1110_List_baseIP5FieldSaIS2_EE11_M_put_nodeEPSt10_List_nodeIS2_E
FNDA:0,_ZNSt7__cxx1110_List_baseIP5FieldSaIS2_EE21_M_get_Node_allocatorEv
FNDA:441,_ZNSt7__cxx1110_List_baseIP5FieldSaIS2_EEC2Ev
FNDA:0,_ZNSt7__cxx1110_List_baseIP5FieldSaIS2_EED2Ev
FNDA:441,_ZNSt7__cxx1110_List_baseIP5FieldSaIS2_EE7_M_initEv
FNDA:1025,_ZNSt7__cxx114listIP5FieldSaIS2_EE14_M_create_nodeIJRKS2_EEEPSt10_List_nodeIS2_EDpOT_
FNDA:441,_ZNSt7__cxx114listIP5FieldSaIS2_EEC2Ev
FNDA:0,_ZNSt7__cxx114listIP5FieldSaIS2_EED2Ev
FNDA:0,_ZNSt7__cxx114listIP5FieldSaIS2_EE3endEv
FNDA:1025,_ZNSt7__cxx114listIP5FieldSaIS2_EE9push_backERKS2_
FNDA:1025,_ZNSt7__cxx114listIP5FieldSaIS2_EE9_M_insertIJRKS2_EEEvSt14_List_iteratorIS2_EDpOT_
FNF:19
FNH:11
DA:113,1480
DA:143,0
DA:144,0
DA:323,0
DA:332,441
DA:333,441
DA:334,441
DA:352,441
DA:354,1025
DA:382,1025
DA:383,1025
DA:386,0
DA:387,0
DA:393,0
DA:394,0
DA:400,441
DA:401,441
DA:402,441
DA:441,0
DA:442,0
DA:448,441
DA:450,441
DA:451,441
DA:452,441
DA:453,441
DA:570,1025
DA:572,1025
DA:573,1025
DA:574,2050
DA:575,1025
DA:577,1025
DA:578,2050
DA:589,441
DA:593,441
DA:733,0
DA:869,0
DA:870,0
DA:1117,1025
DA:1118,1025
DA:1799,1025
DA:1801,1025
DA:1802,1025
DA:1803,1025
DA:1804,1025
LF:44
LH:32
end_of_record
SF:/usr/include/c++/7/ext/aligned_buffer.h
FN:62,_ZN9__gnu_cxx16__aligned_membufImE7_M_addrEv
FN:62,_ZN9__gnu_cxx16__aligned_membufIP5FieldE7_M_addrEv
FN:70,_ZN9__gnu_cxx16__aligned_membufIP5FieldE6_M_ptrEv
FN:70,_ZN9__gnu_cxx16__aligned_membufImE6_M_ptrEv
FNDA:1480,_ZN9__gnu_cxx16__aligned_membufImE7_M_addrEv
FNDA:0,_ZN9__gnu_cxx16__aligned_membufIP5FieldE7_M_addrEv
FNDA:1480,_ZN9__gnu_cxx16__aligned_membufImE6_M_ptrEv
FNDA:0,_ZN9__gnu_cxx16__aligned_membufIP5FieldE6_M_ptrEv
FNF:4
FNH:2
DA:62,1480
DA:63,1480
DA:70,1480
DA:71,1480
LF:4
LH:4
end_of_record
SF:/usr/include/c++/7/ext/new_allocator.h
FN:79,_ZN9__gnu_cxx13new_allocatorISt10_List_nodeIP5FieldEEC2Ev
FN:86,_ZN9__gnu_cxx13new_allocatorISt10_List_nodeIP5FieldEED2Ev
FN:99,_ZN9__gnu_cxx13new_allocatorISt10_List_nodeIP5FieldEE8allocateEmPKv
FN:116,_ZN9__gnu_cxx13new_allocatorISt10_List_nodeIP5FieldEE10deallocateEPS4_m
FN:129,_ZNK9__gnu_cxx13new_allocatorISt10_List_nodeIP5FieldEE8max_sizeEv
FN:135,_ZN9__gnu_cxx13new_allocatorISt10_List_nodeIP5FieldEE9constructIS3_JRKS3_EEEvPT_DpOT0_
FN:140,_ZN9__gnu_cxx13new_allocatorISt10_List_nodeIP5FieldEE7destroyIS3_EEvPT_
FNDA:441,_ZN9__gnu_cxx13new_allocatorISt10_List_nodeIP5FieldEEC2Ev
FNDA:0,_ZN9__gnu_cxx13new_allocatorISt10_List_nodeIP5FieldEED2Ev
FNDA:1025,_ZN9__gnu_cxx13new_allocatorISt10_List_nodeIP5FieldEE8allocateEmPKv
FNDA:0,_ZN9__gnu_cxx13new_allocatorISt10_List_nodeIP5FieldEE10deallocateEPS4_m
FNDA:1025,_ZNK9__gnu_cxx13new_allocatorISt10_List_nodeIP5FieldEE8max_sizeEv
FNDA:1025,_ZN9__gnu_cxx13new_allocatorISt10_List_nodeIP5FieldEE9constructIS3_JRKS3_EEEvPT_DpOT0_
FNDA:0,_ZN9__gnu_cxx13new_allocatorISt10_List_nodeIP5FieldEE7destroyIS3_EEvPT_
FNF:7
FNH:4
DA:79,441
DA:86,0
DA:99,1025
DA:101,1025
DA:102,0
DA:111,1025
DA:116,0
DA:125,0
DA:126,0
DA:129,1025
DA:130,1025
DA:135,1025
DA:136,1025
DA:140,0
LF:14
LH:8
end_of_record
SF:/usr/include/c++/7/iostream
DA:74,1
LF:1
LH:1
end_of_record
SF:/usr/include/c++/7/new
FN:168,_ZnwmPv
FNDA:1038,_ZnwmPv
FNF:1
FNH:1
DA:168,1038
DA:169,1038
LF:2
LH:2
end_of_record
SF:/usr/include/c++/7/typeinfo
FN:120,_ZNKSt9type_infoeqERKS_
FNDA:0,_ZNKSt9type_infoeqERKS_
FNF:1
FNH:0
DA:120,0
DA:122,0
DA:123,0
DA:124,0
LF:4
LH:0
end_of_record
SF:/home/mentathiel/Documents/Faks/IV/azrs/RGChess/RG136-chess/King.cc
FN:5,_ZN4KingC2E11PlayerColorii
FN:7,_ZN4KingC2E11PlayerColorP5Field
FN:12,_ZN4King16getPlayableMovesB5cxx11E10Chessboard
FN:27,_ZN4King12checkIfLegalE5Field10Chessboard
FN:83,_ZN4King10movedPieceE11PlayerColorP5Field
FN:90,_ZNK4King8toStringB5cxx11Ev
FN:99,_ZN4King7displayEii
FN:119,_Z41__static_initialization_and_destruction_0ii
FN:119,_GLOBAL__sub_I__ZN4KingC2E11PlayerColorii
FNDA:2,_ZN4KingC2E11PlayerColorii
FNDA:0,_ZN4KingC2E11PlayerColorP5Field
FNDA:43,_ZN4King16getPlayableMovesB5cxx11E10Chessboard
FNDA:2752,_ZN4King12checkIfLegalE5Field10Chessboard
FNDA:0,_ZN4King10movedPieceE11PlayerColorP5Field
FNDA:0,_ZNK4King8toStringB5cxx11Ev
FNDA:352,_ZN4King7displayEii
FNDA:1,_GLOBAL__sub_I__ZN4KingC2E11PlayerColorii
FNDA:1,_Z41__static_initialization_and_destruction_0ii
FNF:9
FNH:6
DA:5,2
DA:7,0
DA:12,43
DA:13,43
DA:15,387
DA:16,3096
DA:17,2752
DA:18,2752
DA:19,227
DA:21,2525
DA:24,43
DA:27,2752
DA:33,7296
DA:34,688
DA:35,258
DA:36,2967
DA:37,55
DA:43,8091
DA:44,43
DA:45,43
DA:46,2740
DA:47,43
DA:50,7962
DA:51,43
DA:52,43
DA:53,2697
DA:54,43
DA:61,7833
DA:62,43
DA:63,43
DA:64,2654
DA:65,43
DA:69,7704
DA:70,43
DA:71,43
DA:72,2611
DA:73,43
DA:76,2525
DA:83,0
DA:84,0
DA:90,0
DA:91,0
DA:92,0
DA:99,352
DA:100,352
DA:101,352
DA:102,352
DA:103,176
DA:106,176
DA:109,352
DA:110,352
DA:111,352
DA:112,352
DA:113,352
DA:114,352
DA:115,352
DA:116,352
DA:117,352
DA:118,352
DA:119,355
LF:60
LH:54
end_of_record
SF:/home/mentathiel/Documents/Faks/IV/azrs/RGChess/RG136-chess/chess.hpp
FN:105,_ZN5FieldC2Eii
FN:184,_ZN10ChessboardC2ERKS_
FNDA:19973,_ZN5FieldC2Eii
FNDA:0,_ZN10ChessboardC2ERKS_
FNF:2
FNH:1
DA:105,19973
DA:184,0
LF:2
LH:1
end_of_record
TN:
SF:/usr/include/c++/7/bits/alloc_traits.h
FN:435,_ZNSt16allocator_traitsISaISt10_List_nodeIP4MoveEEE8allocateERS4_m
FN:461,_ZNSt16allocator_traitsISaISt10_List_nodeIP5FieldEEE10deallocateERS4_PS3_m
FN:461,_ZNSt16allocator_traitsISaISt10_List_nodeIP4MoveEEE10deallocateERS4_PS3_m
FN:474,_ZNSt16allocator_traitsISaISt10_List_nodeIP4MoveEEE9constructIS2_JS2_EEEvRS4_PT_DpOT0_
FN:474,_ZNSt16allocator_traitsISaISt10_List_nodeIP4MoveEEE9constructIS2_JRKS2_EEEvRS4_PT_DpOT0_
FN:486,_ZNSt16allocator_traitsISaISt10_List_nodeIP5FieldEEE7destroyIS2_EEvRS4_PT_
FN:486,_ZNSt16allocator_traitsISaISt10_List_nodeIP4MoveEEE7destroyIS2_EEvRS4_PT_
FNDA:13,_ZNSt16allocator_traitsISaISt10_List_nodeIP4MoveEEE8allocateERS4_m
FNDA:0,_ZNSt16allocator_traitsISaISt10_List_nodeIP5FieldEEE10deallocateERS4_PS3_m
FNDA:0,_ZNSt16allocator_traitsISaISt10_List_nodeIP4MoveEEE10deallocateERS4_PS3_m
FNDA:13,_ZNSt16allocator_traitsISaISt10_List_nodeIP4MoveEEE9constructIS2_JRKS2_EEEvRS4_PT_DpOT0_
FNDA:0,_ZNSt16allocator_traitsISaISt10_List_nodeIP4MoveEEE9constructIS2_JS2_EEEvRS4_PT_DpOT0_
FNDA:0,_ZNSt16allocator_traitsISaISt10_List_nodeIP5FieldEEE7destroyIS2_EEvRS4_PT_
FNDA:0,_ZNSt16allocator_traitsISaISt10_List_nodeIP4MoveEEE7destroyIS2_EEvRS4_PT_
FNF:7
FNH:2
DA:435,13
DA:436,13
DA:461,0
DA:462,0
DA:474,13
DA:475,13
DA:486,0
DA:487,0
LF:8
LH:4
end_of_record
SF:/usr/include/c++/7/bits/allocated_ptr.h
FN:52,_ZNSt15__allocated_ptrISaISt10_List_nodeIP4MoveEEEC2ERS4_PS3_
FN:70,_ZNSt15__allocated_ptrISaISt10_List_nodeIP4MoveEEED2Ev
FN:78,_ZNSt15__allocated_ptrISaISt10_List_nodeIP4MoveEEEaSEDn
FNDA:13,_ZNSt15__allocated_ptrISaISt10_List_nodeIP4MoveEEEC2ERS4_PS3_
FNDA:13,_ZNSt15__allocated_ptrISaISt10_List_nodeIP4MoveEEED2Ev
FNDA:13,_ZNSt15__allocated_ptrISaISt10_List_nodeIP4MoveEEEaSEDn
FNF:3
FNH:3
DA:52,13
DA:53,13
DA:54,13
DA:70,13
DA:72,13
DA:73,0
DA:74,13
DA:78,13
DA:80,13
DA:81,13
LF:10
LH:9
end_of_record
SF:/usr/include/c++/7/bits/allocator.h
FN:131,_ZNSaISt10_List_nodeIP4MoveEEC2Ev
FN:139,_ZNSaISt10_List_nodeIP5FieldEED2Ev
FN:139,_ZNSaISt10_List_nodeIP4MoveEED2Ev
FNDA:1,_ZNSaISt10_List_nodeIP4MoveEEC2Ev
FNDA:0,_ZNSaISt10_List_nodeIP5FieldEED2Ev
FNDA:0,_ZNSaISt10_List_nodeIP4MoveEED2Ev
FNF:3
FNH:1
DA:131,1
DA:139,0
LF:2
LH:1
end_of_record
SF:/usr/include/c++/7/bits/list.tcc
FN:65,_ZNSt7__cxx1110_List_baseIP4MoveSaIS2_EE8_M_clearEv
FN:65,_ZNSt7__cxx1110_List_baseIP5FieldSaIS2_EE8_M_clearEv
FNDA:0,_ZNSt7__cxx1110_List_baseIP5FieldSaIS2_EE8_M_clearEv
FNDA:0,_ZNSt7__cxx1110_List_baseIP4MoveSaIS2_EE8_M_clearEv
FNF:2
FNH:0
DA:65,0
DA:69,0
DA:70,0
DA:72,0
DA:73,0
DA:74,0
DA:76,0
DA:80,0
DA:82,0
LF:9
LH:0
end_of_record
SF:/usr/include/c++/7/bits/move.h
FN:47,_ZSt11__addressofISaISt10_List_nodeIP4MoveEEEPT_RS5_
FN:73,_ZSt7forwardIRKP4MoveEOT_RNSt16remove_referenceIS4_E4typeE
FN:73,_ZSt7forwardIP4MoveEOT_RNSt16remove_referenceIS2_E4typeE
FN:98,_ZSt4moveIRP4MoveEONSt16remove_referenceIT_E4typeEOS4_
FNDA:13,_ZSt11__addressofISaISt10_List_nodeIP4MoveEEEPT_RS5_
FNDA:52,_ZSt7forwardIRKP4MoveEOT_RNSt16remove_referenceIS4_E4typeE
FNDA:0,_ZSt7forwardIP4MoveEOT_RNSt16remove_referenceIS2_E4typeE
FNDA:0,_ZSt4moveIRP4MoveEONSt16remove_referenceIT_E4typeEOS4_
FNF:4
FNH:2
DA:47,13
DA:48,13
DA:73,52
DA:74,52
DA:98,0
DA:99,0
LF:6
LH:4
end_of_record
SF:/usr/include/c++/7/bits/stl_list.h
FN:113,_ZNSt10_List_nodeImE9_M_valptrEv
FN:113,_ZNSt10_List_nodeIP4MoveE9_M_valptrEv
FN:113,_ZNSt10_List_nodeIP5FieldE9_M_valptrEv
FN:143,_ZNSt14_List_iteratorIP5FieldEC2EPNSt8__detail15_List_node_baseE
FN:143,_ZNSt14_List_iteratorIP4MoveEC2EPNSt8__detail15_List_node_baseE
FN:152,_ZNKSt14_List_iteratorIP4MoveEdeEv
FN:152,_ZNKSt14_List_iteratorIP5FieldEdeEv
FN:160,_ZNSt14_List_iteratorIP4MoveEppEv
FN:160,_ZNSt14_List_iteratorIP5FieldEppEv
FN:175,_ZNSt14_List_iteratorIP4MoveEmmEv
FN:194,_ZNKSt14_List_iteratorIP5FieldEneERKS2_
FN:194,_ZNKSt14_List_iteratorIP4MoveEneERKS2_
FN:323,_ZNSt7__cxx1110_List_baseIP4MoveSaIS2_EE10_List_implD2Ev
FN:323,_ZNSt7__cxx1110_List_baseIP5FieldSaIS2_EE10_List_implD2Ev
FN:332,_ZNSt7__cxx1110_List_baseIP4MoveSaIS2_EE10_List_implC2Ev
FN:352,_ZNSt7__cxx1110_List_baseIP4MoveSaIS2_EE11_M_set_sizeEm
FN:354,_ZNSt7__cxx1110_List_baseIP4MoveSaIS2_EE11_M_inc_sizeEm
FN:356,_ZNSt7__cxx1110_List_baseIP4MoveSaIS2_EE11_M_dec_sizeEm
FN:382,_ZNSt7__cxx1110_List_baseIP4MoveSaIS2_EE11_M_get_nodeEv
FN:386,_ZNSt7__cxx1110_List_baseIP5FieldSaIS2_EE11_M_put_nodeEPSt10_List_nodeIS2_E
FN:386,_ZNSt7__cxx1110_List_baseIP4MoveSaIS2_EE11_M_put_nodeEPSt10_List_nodeIS2_E
FN:393,_ZNSt7__cxx1110_List_baseIP4MoveSaIS2_EE21_M_get_Node_allocatorEv
FN:393,_ZNSt7__cxx1110_List_baseIP5FieldSaIS2_EE21_M_get_Node_allocatorEv
FN:400,_ZNSt7__cxx1110_List_baseIP4MoveSaIS2_EEC2Ev
FN:441,_ZNSt7__cxx1110_List_baseIP4MoveSaIS2_EED2Ev
FN:441,_ZNSt7__cxx1110_List_baseIP5FieldSaIS2_EED2Ev
FN:448,_ZNSt7__cxx1110_List_baseIP4MoveSaIS2_EE7_M_initEv
FN:570,_ZNSt7__cxx114listIP4MoveSaIS2_EE14_M_create_nodeIJRKS2_EEEPSt10_List_nodeIS2_EDpOT_
FN:570,_ZNSt7__cxx114listIP4MoveSaIS2_EE14_M_create_nodeIJS2_EEEPSt10_List_nodeIS2_EDpOT_
FN:589,_ZNSt7__cxx114listIP4MoveSaIS2_EEC2Ev
FN:733,_ZNSt7__cxx114listIP4MoveSaIS2_EED2Ev
FN:733,_ZNSt7__cxx114listIP5FieldSaIS2_EED2Ev
FN:851,_ZNSt7__cxx114listIP5FieldSaIS2_EE5beginEv
FN:851,_ZNSt7__cxx114listIP4MoveSaIS2_EE5beginEv
FN:869,_ZNSt7__cxx114listIP4MoveSaIS2_EE3endEv
FN:869,_ZNSt7__cxx114listIP5FieldSaIS2_EE3endEv
FN:961,_ZNKSt7__cxx114listIP4MoveSaIS2_EE5emptyEv
FN:961,_ZNKSt7__cxx114listIP5FieldSaIS2_EE5emptyEv
FN:1036,_ZNSt7__cxx114listIP4MoveSaIS2_EE4backEv
FN:1117,_ZNSt7__cxx114listIP4MoveSaIS2_EE9push_backERKS2_
FN:1122,_ZNSt7__cxx114listIP4MoveSaIS2_EE9push_backEOS2_
FN:1152,_ZNSt7__cxx114listIP4MoveSaIS2_EE8pop_backEv
FN:1799,_ZNSt7__cxx114listIP4MoveSaIS2_EE9_M_insertIJS2_EEEvSt14_List_iteratorIS2_EDpOT_
FN:1799,_ZNSt7__cxx114listIP4MoveSaIS2_EE9_M_insertIJRKS2_EEEvSt14_List_iteratorIS2_EDpOT_
FN:1809,_ZNSt7__cxx114listIP4MoveSaIS2_EE8_M_eraseESt14_List_iteratorIS2_E
FNDA:0,_ZNSt10_List_nodeImE9_M_valptrEv
FNDA:0,_ZNSt10_List_nodeIP4MoveE9_M_valptrEv
FNDA:0,_ZNSt10_List_nodeIP5FieldE9_M_valptrEv
FNDA:13,_ZNSt14_List_iteratorIP4MoveEC2EPNSt8__detail15_List_node_baseE
FNDA:0,_ZNSt14_List_iteratorIP5FieldEC2EPNSt8__detail15_List_node_baseE
FNDA:0,_ZNKSt14_List_iteratorIP4MoveEdeEv
FNDA:0,_ZNKSt14_List_iteratorIP5FieldEdeEv
FNDA:0,_ZNSt14_List_iteratorIP4MoveEppEv
FNDA:0,_ZNSt14_List_iteratorIP5FieldEppEv
FNDA:0,_ZNSt14_List_iteratorIP4MoveEmmEv
FNDA:0,_ZNKSt14_List_iteratorIP4MoveEneERKS2_
FNDA:0,_ZNKSt14_List_iteratorIP5FieldEneERKS2_
FNDA:0,_ZNSt7__cxx1110_List_baseIP5FieldSaIS2_EE10_List_implD2Ev
FNDA:0,_ZNSt7__cxx1110_List_baseIP4MoveSaIS2_EE10_List_implD2Ev
FNDA:1,_ZNSt7__cxx1110_List_baseIP4MoveSaIS2_EE10_List_implC2Ev
FNDA:1,_ZNSt7__cxx1110_List_baseIP4MoveSaIS2_EE11_M_set_sizeEm
FNDA:13,_ZNSt7__cxx1110_List_baseIP4MoveSaIS2_EE11_M_inc_sizeEm
FNDA:0,_ZNSt7__cxx1110_List_baseIP4MoveSaIS2_EE11_M_dec_sizeEm
FNDA:13,_ZNSt7__cxx1110_List_baseIP4MoveSaIS2_EE11_M_get_nodeEv
FNDA:0,_ZNSt7__cxx1110_List_baseIP5FieldSaIS2_EE11_M_put_nodeEPSt10_List_nodeIS2_E
FNDA:0,_ZNSt7__cxx1110_List_baseIP4MoveSaIS2_EE11_M_put_nodeEPSt10_List_nodeIS2_E
FNDA:0,_ZNSt7__cxx1110_List_baseIP5FieldSaIS2_EE21_M_get_Node_allocatorEv
FNDA:0,_ZNSt7__cxx1110_List_baseIP4MoveSaIS2_EE21_M_get_Node_allocatorEv
FNDA:1,_ZNSt7__cxx1110_List_baseIP4MoveSaIS2_EEC2Ev
FNDA:0,_ZNSt7__cxx1110_List_baseIP5FieldSaIS2_EED2Ev
FNDA:0,_ZNSt7__cxx1110_List_baseIP4MoveSaIS2_EED2Ev
FNDA:1,_ZNSt7__cxx1110_List_baseIP4MoveSaIS2_EE7_M_initEv
FNDA:13,_ZNSt7__cxx114listIP4MoveSaIS2_EE14_M_create_nodeIJRKS2_EEEPSt10_List_nodeIS2_EDpOT_
FNDA:0,_ZNSt7__cxx114listIP4MoveSaIS2_EE14_M_create_nodeIJS2_EEEPSt10_List_nodeIS2_EDpOT_
FNDA:1,_ZNSt7__cxx114listIP4MoveSaIS2_EEC2Ev
FNDA:0,_ZNSt7__cxx114listIP5FieldSaIS2_EED2Ev
FNDA:0,_ZNSt7__cxx114listIP4MoveSaIS2_EED2Ev
FNDA:0,_ZNSt7__cxx114listIP4MoveSaIS2_EE5beginEv
FNDA:0,_ZNSt7__cxx114listIP5FieldSaIS2_EE5beginEv
FNDA:13,_ZNSt7__cxx114listIP4MoveSaIS2_EE3endEv
FNDA:0,_ZNSt7__cxx114listIP5FieldSaIS2_EE3endEv
FNDA:0,_ZNKSt7__cxx114listIP4MoveSaIS2_EE5emptyEv
FNDA:17,_ZNKSt7__cxx114listIP5FieldSaIS2_EE5emptyEv
FNDA:0,_ZNSt7__cxx114listIP4MoveSaIS2_EE4backEv
FNDA:13,_ZNSt7__cxx114listIP4MoveSaIS2_EE9push_backERKS2_
FNDA:0,_ZNSt7__cxx114listIP4MoveSaIS2_EE9push_backEOS2_
FNDA:0,_ZNSt7__cxx114listIP4MoveSaIS2_EE8pop_backEv
FNDA:13,_ZNSt7__cxx114listIP4MoveSaIS2_EE9_M_insertIJRKS2_EEEvSt14_List_iteratorIS2_EDpOT_
FNDA:0,_ZNSt7__cxx114listIP4MoveSaIS2_EE9_M_insertIJS2_EEEvSt14_List_iteratorIS2_EDpOT_
FNDA:0,_ZNSt7__cxx114listIP4MoveSaIS2_EE8_M_eraseESt14_List_iteratorIS2_E
FNF:45
FNH:13
DA:113,0
DA:143,13
DA:144,13
DA:152,0
DA:153,0
DA:160,0
DA:162,0
DA:163,0
DA:175,0
DA:177,0
DA:178,0
DA:194,0
DA:195,0
DA:323,0
DA:332,1
DA:333,1
DA:334,1
DA:352,1
DA:354,13
DA:356,0
DA:382,13
DA:383,13
DA:386,0
DA:387,0
DA:393,0
DA:394,0
DA:400,1
DA:401,1
DA:402,1
DA:441,0
DA:442,0
DA:448,1
DA:450,1
DA:451,1
DA:452,1
DA:453,1
DA:570,13
DA:572,13
DA:573,13
DA:574,26
DA:575,13
DA:577,13
DA:578,26
DA:589,1
DA:593,1
DA:733,0
DA:851,0
DA:852,0
DA:869,13
DA:870,13
DA:961,17
DA:962,17
DA:1036,0
DA:1038,0
DA:1039,0
DA:1040,0
DA:1117,13
DA:1118,13
DA:1122,0
DA:1123,0
DA:1152,0
DA:1153,0
DA:1799,13
DA:1801,13
DA:1802,13
DA:1803,13
DA:1804,13
DA:1809,0
DA:1811,0
DA:1812,0
DA:1813,0
DA:1815,0
DA:1820,0
DA:1821,0
LF:74
LH:37
end_of_record
SF:/usr/include/c++/7/ext/aligned_buffer.h
FN:62,_ZN9__gnu_cxx16__aligned_membufIP5FieldE7_M_addrEv
FN:62,_ZN9__gnu_cxx16__aligned_membufImE7_M_addrEv
FN:62,_ZN9__gnu_cxx16__aligned_membufIP4MoveE7_M_addrEv
FN:70,_ZN9__gnu_cxx16__aligned_membufImE6_M_ptrEv
FN:70,_ZN9__gnu_cxx16__aligned_membufIP4MoveE6_M_ptrEv
FN:70,_ZN9__gnu_cxx16__aligned_membufIP5FieldE6_M_ptrEv
FNDA:0,_ZN9__gnu_cxx16__aligned_membufImE7_M_addrEv
FNDA:0,_ZN9__gnu_cxx16__aligned_membufIP4MoveE7_M_addrEv
FNDA:0,_ZN9__gnu_cxx16__aligned_membufIP5FieldE7_M_addrEv
FNDA:0,_ZN9__gnu_cxx16__aligned_membufImE6_M_ptrEv
FNDA:0,_ZN9__gnu_cxx16__aligned_membufIP4MoveE6_M_ptrEv
FNDA:0,_ZN9__gnu_cxx16__aligned_membufIP5FieldE6_M_ptrEv
FNF:6
FNH:0
DA:62,0
DA:63,0
DA:70,0
DA:71,0
LF:4
LH:0
end_of_record
SF:/usr/include/c++/7/ext/new_allocator.h
FN:79,_ZN9__gnu_cxx13new_allocatorISt10_List_nodeIP4MoveEEC2Ev
FN:86,_ZN9__gnu_cxx13new_allocatorISt10_List_nodeIP4MoveEED2Ev
FN:86,_ZN9__gnu_cxx13new_allocatorISt10_List_nodeIP5FieldEED2Ev
FN:99,_ZN9__gnu_cxx13new_allocatorISt10_List_nodeIP4MoveEE8allocateEmPKv
FN:116,_ZN9__gnu_cxx13new_allocatorISt10_List_nodeIP4MoveEE10deallocateEPS4_m
FN:116,_ZN9__gnu_cxx13new_allocatorISt10_List_nodeIP5FieldEE10deallocateEPS4_m
FN:129,_ZNK9__gnu_cxx13new_allocatorISt10_List_nodeIP4MoveEE8max_sizeEv
FN:135,_ZN9__gnu_cxx13new_allocatorISt10_List_nodeIP4MoveEE9constructIS3_JRKS3_EEEvPT_DpOT0_
FN:135,_ZN9__gnu_cxx13new_allocatorISt10_List_nodeIP4MoveEE9constructIS3_JS3_EEEvPT_DpOT0_
FN:140,_ZN9__gnu_cxx13new_allocatorISt10_List_nodeIP5FieldEE7destroyIS3_EEvPT_
FN:140,_ZN9__gnu_cxx13new_allocatorISt10_List_nodeIP4MoveEE7destroyIS3_EEvPT_
FNDA:1,_ZN9__gnu_cxx13new_allocatorISt10_List_nodeIP4MoveEEC2Ev
FNDA:0,_ZN9__gnu_cxx13new_allocatorISt10_List_nodeIP5FieldEED2Ev
FNDA:0,_ZN9__gnu_cxx13new_allocatorISt10_List_nodeIP4MoveEED2Ev
FNDA:13,_ZN9__gnu_cxx13new_allocatorISt10_List_nodeIP4MoveEE8allocateEmPKv
FNDA:0,_ZN9__gnu_cxx13new_allocatorISt10_List_nodeIP5FieldEE10deallocateEPS4_m
FNDA:0,_ZN9__gnu_cxx13new_allocatorISt10_List_nodeIP4MoveEE10deallocateEPS4_m
FNDA:13,_ZNK9__gnu_cxx13new_allocatorISt10_List_nodeIP4MoveEE8max_sizeEv
FNDA:13,_ZN9__gnu_cxx13new_allocatorISt10_List_nodeIP4MoveEE9constructIS3_JRKS3_EEEvPT_DpOT0_
FNDA:0,_ZN9__gnu_cxx13new_allocatorISt10_List_nodeIP4MoveEE9constructIS3_JS3_EEEvPT_DpOT0_
FNDA:0,_ZN9__gnu_cxx13new_allocatorISt10_List_nodeIP5FieldEE7destroyIS3_EEvPT_
FNDA:0,_ZN9__gnu_cxx13new_allocatorISt10_List_nodeIP4MoveEE7destroyIS3_EEvPT_
FNF:11
FNH:4
DA:79,1
DA:86,0
DA:99,13
DA:101,13
DA:102,0
DA:111,13
DA:116,0
DA:125,0
DA:126,0
DA:129,13
DA:130,13
DA:135,13
DA:136,13
DA:140,0
LF:14
LH:8
end_of_record
SF:/usr/include/c++/7/iostream
DA:74,1
LF:1
LH:1
end_of_record
SF:/usr/include/c++/7/new
FN:168,_ZnwmPv
FNDA:0,_ZnwmPv
FNF:1
FNH:0
DA:168,0
DA:169,0
LF:2
LH:0
end_of_record
SF:/usr/include/c++/7/typeinfo
FN:120,_ZNKSt9type_infoeqERKS_
FN:136,_ZNKSt9type_infoneERKS_
FNDA:0,_ZNKSt9type_infoeqERKS_
FNDA:0,_ZNKSt9type_infoneERKS_
FNF:2
FNH:0
DA:120,0
DA:122,0
DA:123,0
DA:124,0
DA:136,0
DA:137,0
LF:6
LH:0
end_of_record
SF:/home/mentathiel/Documents/Faks/IV/azrs/RGChess/RG136-chess/Game.cc
FN:10,_ZN4GameC2Ev
FN:14,_ZN4GameC2EP10Chessboard
FN:21,_ZN4Game13checkForCheckE11PlayerColor
FN:48,_ZN4Game13checkForCheckEv
FN:54,_ZN4Game12checkForMateEv
FN:98,_ZN4Game12checkForDrawEv
FN:198,_ZN4Game10checkStateEv
FN:217,_ZN4Game8playMoveEP4Move
FN:264,_ZN4Game8playMoveEP5FieldP10ChessPiece
FN:277,_ZN4Game8undoMoveEv
FN:311,_ZN4Game11selectFieldEv
FN:329,_ZN4Game11pickingMoveEv
FN:336,_ZN4Game7displayEii
FN:349,_Z41__static_initialization_and_destruction_0ii
FN:349,_GLOBAL__sub_I__ZN4GameC2Ev
FNDA:1,_ZN4GameC2Ev
FNDA:0,_ZN4GameC2EP10Chessboard
FNDA:34,_ZN4Game13checkForCheckE11PlayerColor
FNDA:17,_ZN4Game13checkForCheckEv
FNDA:17,_ZN4Game12checkForMateEv
FNDA:17,_ZN4Game12checkForDrawEv
FNDA:17,_ZN4Game10checkStateEv
FNDA:17,_ZN4Game8playMoveEP4Move
FNDA:17,_ZN4Game8playMoveEP5FieldP10ChessPiece
FNDA:0,_ZN4Game8undoMoveEv
FNDA:17,_ZN4Game11selectFieldEv
FNDA:34,_ZN4Game11pickingMoveEv
FNDA:176,_ZN4Game7displayEii
FNDA:1,_GLOBAL__sub_I__ZN4GameC2Ev
FNDA:1,_Z41__static_initialization_and_destruction_0ii
FNF:15
FNH:13
DA:10,1
DA:11,1
DA:12,1
DA:14,0
DA:15,0
DA:16,0
DA:21,34
DA:23,34
DA:26,306
DA:27,2448
DA:28,4352
DA:29,1088
DA:30,2244
DA:32,34
DA:33,0
DA:34,34
DA:35,0
DA:42,34
DA:48,17
DA:49,17
DA:54,17
DA:56,17
DA:59,17
DA:60,17
DA:64,0
DA:65,0
DA:66,0
DA:67,0
DA:68,0
DA:70,0
DA:71,0
DA:72,0
DA:73,0
DA:83,0
DA:84,0
DA:85,0
DA:86,0
DA:87,0
DA:88,0
DA:89,0
DA:91,0
DA:92,0
DA:94,0
DA:98,17
DA:101,17
DA:102,153
DA:103,1224
DA:104,2176
DA:105,544
DA:106,1122
DA:107,17
DA:108,0
DA:109,17
DA:110,0
DA:112,34
DA:113,17
DA:114,17
DA:115,105
DA:116,88
DA:123,17
DA:124,0
DA:131,17
DA:132,0
DA:134,17
DA:135,17
DA:136,17
DA:137,17
DA:138,17
DA:139,17
DA:140,17
DA:141,153
DA:142,1224
DA:143,1088
DA:144,544
DA:145,68
DA:146,34
DA:148,34
DA:150,476
DA:151,68
DA:152,34
DA:153,17
DA:155,17
DA:158,34
DA:159,17
DA:161,17
DA:164,408
DA:174,17
DA:175,17
DA:176,17
DA:177,0
DA:178,0
DA:179,0
DA:180,0
DA:181,0
DA:182,0
DA:183,0
DA:184,0
DA:185,0
DA:186,0
DA:188,0
DA:189,0
DA:192,17
DA:198,17
DA:199,17
DA:200,0
DA:202,17
DA:203,0
DA:204,0
DA:206,17
DA:207,0
DA:208,0
DA:210,41
DA:211,34
DA:212,0
DA:217,17
DA:219,17
DA:220,0
DA:223,17
DA:226,34
DA:228,17
DA:231,13
DA:232,26
DA:233,52
DA:234,26
DA:237,13
DA:240,13
DA:243,13
DA:246,13
DA:247,8
DA:249,5
DA:252,13
DA:253,7
DA:255,6
DA:256,6
DA:264,17
DA:266,17
DA:267,0
DA:271,17
DA:272,17
DA:277,0
DA:280,0
DA:281,0
DA:284,0
DA:286,0
DA:289,0
DA:290,0
DA:291,0
DA:296,0
DA:299,0
DA:302,0
DA:303,0
DA:305,0
DA:306,0
DA:309,0
DA:311,17
DA:313,17
DA:314,0
DA:317,34
DA:319,17
DA:321,17
DA:322,17
DA:323,17
DA:329,34
DA:330,34
DA:336,176
DA:339,176
DA:342,1584
DA:343,12672
DA:344,11264
DA:345,5632
DA:349,179
LF:171
LH:107
end_of_record
SF:/home/mentathiel/Documents/Faks/IV/azrs/RGChess/RG136-chess/chess.hpp
FN:105,_ZN5FieldC2Eii
FN:184,_ZN10ChessboardC2ERKS_
FNDA:0,_ZN5FieldC2Eii
FNDA:0,_ZN10ChessboardC2ERKS_
FNF:2
FNH:0
DA:105,0
DA:184,0
LF:2
LH:0
end_of_record
TN:
SF:/usr/include/c++/7/bits/basic_string.h
FN:139,_ZNSt7__cxx1112basic_stringIcSt11char_traitsIcESaIcEE12_Alloc_hiderD2Ev
FN:232,_ZNSt7__cxx1112basic_stringIcSt11char_traitsIcESaIcEE16_M_construct_auxIPcEEvT_S7_St12__false_type
FN:252,_ZNSt7__cxx1112basic_stringIcSt11char_traitsIcESaIcEE12_M_constructIPcEEvT_S7_
FN:604,_ZNSt7__cxx1112basic_stringIcSt11char_traitsIcESaIcEEC2IPcvEET_S7_RKS3_
FN:6414,_ZNSt7__cxx119to_stringEi
FNDA:0,_ZNSt7__cxx1112basic_stringIcSt11char_traitsIcESaIcEE12_Alloc_hiderD2Ev
FNDA:0,_ZNSt7__cxx1112basic_stringIcSt11char_traitsIcESaIcEE16_M_construct_auxIPcEEvT_S7_St12__false_type
FNDA:0,_ZNSt7__cxx1112basic_stringIcSt11char_traitsIcESaIcEE12_M_constructIPcEEvT_S7_
FNDA:0,_ZNSt7__cxx1112basic_stringIcSt11char_traitsIcESaIcEEC2IPcvEET_S7_RKS3_
FNDA:0,_ZNSt7__cxx119to_stringEi
FNF:5
FNH:0
DA:139,0
DA:232,0
DA:236,0
DA:237,0
DA:252,0
DA:255,0
DA:256,0
DA:604,0
DA:606,0
DA:607,0
DA:6414,0
DA:6416,0
LF:12
LH:0
end_of_record
SF:/usr/include/c++/7/bits/basic_string.tcc
FN:206,_ZNSt7__cxx1112basic_stringIcSt11char_traitsIcESaIcEE12_M_constructIPcEEvT_S7_St20forward_iterator_tag
FNDA:0,_ZNSt7__cxx1112basic_stringIcSt11char_traitsIcESaIcEE12_M_constructIPcEEvT_S7_St20forward_iterator_tag
FNF:1
FNH:0
DA:206,0
DA:211,0
DA:212,0
DA:215,0
DA:217,0
DA:219,0
DA:220,0
DA:225,0
DA:226,0
DA:228,0
DA:229,0
DA:232,0
DA:233,0
LF:13
LH:0
end_of_record
SF:/usr/include/c++/7/bits/stl_iterator_base_funcs.h
FN:98,_ZSt10__distanceIPcENSt15iterator_traitsIT_E15difference_typeES2_S2_St26random_access_iterator_tag
FN:138,_ZSt8distanceIPcENSt15iterator_traitsIT_E15difference_typeES2_S2_
FNDA:0,_ZSt10__distanceIPcENSt15iterator_traitsIT_E15difference_typeES2_S2_St26random_access_iterator_tag
FNDA:0,_ZSt8distanceIPcENSt15iterator_traitsIT_E15difference_typeES2_S2_
FNF:2
FNH:0
DA:98,0
DA:104,0
DA:138,0
DA:141,0
DA:142,0
LF:5
LH:0
end_of_record
SF:/usr/include/c++/7/bits/stl_iterator_base_types.h
FN:205,_ZSt19__iterator_categoryIPcENSt15iterator_traitsIT_E17iterator_categoryERKS2_
FNDA:0,_ZSt19__iterator_categoryIPcENSt15iterator_traitsIT_E17iterator_categoryERKS2_
FNF:1
FNH:0
DA:205,0
DA:206,0
LF:2
LH:0
end_of_record
SF:/usr/include/c++/7/ext/string_conversions.h
FN:99,_ZN9__gnu_cxx12__to_xstringINSt7__cxx1112basic_stringIcSt11char_traitsIcESaIcEEEcEET_PFiPT0_mPKS8_P13__va_list_tagEmSB_z
FNDA:0,_ZN9__gnu_cxx12__to_xstringINSt7__cxx1112basic_stringIcSt11char_traitsIcESaIcEEEcEET_PFiPT0_mPKS8_P13__va_list_tagEmSB_z
FNF:1
FNH:0
DA:99,0
DA:105,0
DA:109,0
DA:111,0
DA:113,0
DA:115,0
LF:6
LH:0
end_of_record
SF:/usr/include/c++/7/ext/type_traits.h
FN:152,_ZN9__gnu_cxx17__is_null_pointerIcEEbPT_
FNDA:0,_ZN9__gnu_cxx17__is_null_pointerIcEEbPT_
FNF:1
FNH:0
DA:152,0
DA:153,0
LF:2
LH:0
end_of_record
SF:/usr/include/c++/7/iostream
DA:74,1
LF:1
LH:1
end_of_record
SF:/home/mentathiel/Documents/Faks/IV/azrs/RGChess/RG136-chess/Field.cc
FN:5,_ZN5Field8fileNameB5cxx11Ei
FN:43,_ZN5Field8toStringB5cxx11Ev
FN:58,_ZN5FieldeqERKS_
FN:66,_ZN5FieldneERKS_
FN:72,_Z41__static_initialization_and_destruction_0ii
FN:72,_GLOBAL__sub_I__ZN5Field8fileNameB5cxx11Ei
FNDA:0,_ZN5Field8fileNameB5cxx11Ei
FNDA:0,_ZN5Field8toStringB5cxx11Ev
FNDA:45,_ZN5FieldeqERKS_
FNDA:258,_ZN5FieldneERKS_
FNDA:1,_GLOBAL__sub_I__ZN5Field8fileNameB5cxx11Ei
FNDA:1,_Z41__static_initialization_and_destruction_0ii
FNF:6
FNH:4
DA:5,0
DA:6,0
DA:9,0
DA:10,0
DA:11,0
DA:12,0
DA:13,0
DA:14,0
DA:15,0
DA:16,0
DA:17,0
DA:18,0
DA:19,0
DA:20,0
DA:21,0
DA:22,0
DA:23,0
DA:24,0
DA:25,0
DA:26,0
DA:27,0
DA:28,0
DA:29,0
DA:30,0
DA:31,0
DA:32,0
DA:33,0
DA:34,0
DA:36,0
DA:37,0
DA:40,0
DA:43,0
DA:44,0
DA:46,0
DA:50,0
DA:52,0
DA:58,45
DA:59,45
DA:60,45
DA:61,4
DA:63,41
DA:66,258
DA:67,258
DA:68,258
DA:69,43
DA:71,215
DA:72,3
LF:47
LH:11
end_of_record
TN:
SF:/usr/include/c++/7/bits/alloc_traits.h
FN:435,_ZNSt16allocator_traitsISaISt10_List_nodeIP5FieldEEE8allocateERS4_m
FN:461,_ZNSt16allocator_traitsISaISt10_List_nodeIP5FieldEEE10deallocateERS4_PS3_m
FN:474,_ZNSt16allocator_traitsISaISt10_List_nodeIP5FieldEEE9constructIS2_JRKS2_EEEvRS4_PT_DpOT0_
FN:486,_ZNSt16allocator_traitsISaISt10_List_nodeIP5FieldEEE7destroyIS2_EEvRS4_PT_
FNDA:0,_ZNSt16allocator_traitsISaISt10_List_nodeIP5FieldEEE8allocateERS4_m
FNDA:0,_ZNSt16allocator_traitsISaISt10_List_nodeIP5FieldEEE10deallocateERS4_PS3_m
FNDA:0,_ZNSt16allocator_traitsISaISt10_List_nodeIP5FieldEEE9constructIS2_JRKS2_EEEvRS4_PT_DpOT0_
FNDA:0,_ZNSt16allocator_traitsISaISt10_List_nodeIP5FieldEEE7destroyIS2_EEvRS4_PT_
FNF:4
FNH:0
DA:435,0
DA:436,0
DA:461,0
DA:462,0
DA:474,0
DA:475,0
DA:486,0
DA:487,0
LF:8
LH:0
end_of_record
SF:/usr/include/c++/7/bits/allocated_ptr.h
FN:52,_ZNSt15__allocated_ptrISaISt10_List_nodeIP5FieldEEEC2ERS4_PS3_
FN:70,_ZNSt15__allocated_ptrISaISt10_List_nodeIP5FieldEEED2Ev
FN:78,_ZNSt15__allocated_ptrISaISt10_List_nodeIP5FieldEEEaSEDn
FNDA:0,_ZNSt15__allocated_ptrISaISt10_List_nodeIP5FieldEEEC2ERS4_PS3_
FNDA:0,_ZNSt15__allocated_ptrISaISt10_List_nodeIP5FieldEEED2Ev
FNDA:0,_ZNSt15__allocated_ptrISaISt10_List_nodeIP5FieldEEEaSEDn
FNF:3
FNH:0
DA:52,0
DA:53,0
DA:54,0
DA:70,0
DA:72,0
DA:73,0
DA:74,0
DA:78,0
DA:80,0
DA:81,0
LF:10
LH:0
end_of_record
SF:/usr/include/c++/7/bits/allocator.h
FN:131,_ZNSaISt10_List_nodeIP5FieldEEC2Ev
FN:139,_ZNSaISt10_List_nodeIP5FieldEED2Ev
FNDA:0,_ZNSaISt10_List_nodeIP5FieldEEC2Ev
FNDA:0,_ZNSaISt10_List_nodeIP5FieldEED2Ev
FNF:2
FNH:0
DA:131,0
DA:139,0
LF:2
LH:0
end_of_record
SF:/usr/include/c++/7/bits/list.tcc
FN:65,_ZNSt7__cxx1110_List_baseIP5FieldSaIS2_EE8_M_clearEv
FNDA:0,_ZNSt7__cxx1110_List_baseIP5FieldSaIS2_EE8_M_clearEv
FNF:1
FNH:0
DA:65,0
DA:69,0
DA:70,0
DA:72,0
DA:73,0
DA:74,0
DA:76,0
DA:80,0
DA:82,0
LF:9
LH:0
end_of_record
SF:/usr/include/c++/7/bits/move.h
FN:47,_ZSt11__addressofISaISt10_List_nodeIP5FieldEEEPT_RS5_
FN:73,_ZSt7forwardIRKP5FieldEOT_RNSt16remove_referenceIS4_E4typeE
FNDA:0,_ZSt11__addressofISaISt10_List_nodeIP5FieldEEEPT_RS5_
FNDA:0,_ZSt7forwardIRKP5FieldEOT_RNSt16remove_referenceIS4_E4typeE
FNF:2
FNH:0
DA:47,0
DA:48,0
DA:73,0
DA:74,0
LF:4
LH:0
end_of_record
SF:/usr/include/c++/7/bits/stl_list.h
FN:113,_ZNSt10_List_nodeImE9_M_valptrEv
FN:113,_ZNSt10_List_nodeIP5FieldE9_M_valptrEv
FN:143,_ZNSt14_List_iteratorIP5FieldEC2EPNSt8__detail15_List_node_baseE
FN:152,_ZNKSt14_List_iteratorIP5FieldEdeEv
FN:160,_ZNSt14_List_iteratorIP5FieldEppEv
FN:194,_ZNKSt14_List_iteratorIP5FieldEneERKS2_
FN:323,_ZNSt7__cxx1110_List_baseIP5FieldSaIS2_EE10_List_implD2Ev
FN:332,_ZNSt7__cxx1110_List_baseIP5FieldSaIS2_EE10_List_implC2Ev
FN:352,_ZNSt7__cxx1110_List_baseIP5FieldSaIS2_EE11_M_set_sizeEm
FN:354,_ZNSt7__cxx1110_List_baseIP5FieldSaIS2_EE11_M_inc_sizeEm
FN:382,_ZNSt7__cxx1110_List_baseIP5FieldSaIS2_EE11_M_get_nodeEv
FN:386,_ZNSt7__cxx1110_List_baseIP5FieldSaIS2_EE11_M_put_nodeEPSt10_List_nodeIS2_E
FN:393,_ZNSt7__cxx1110_List_baseIP5FieldSaIS2_EE21_M_get_Node_allocatorEv
FN:400,_ZNSt7__cxx1110_List_baseIP5FieldSaIS2_EEC2Ev
FN:441,_ZNSt7__cxx1110_List_baseIP5FieldSaIS2_EED2Ev
FN:448,_ZNSt7__cxx1110_List_baseIP5FieldSaIS2_EE7_M_initEv
FN:570,_ZNSt7__cxx114listIP5FieldSaIS2_EE14_M_create_nodeIJRKS2_EEEPSt10_List_nodeIS2_EDpOT_
FN:589,_ZNSt7__cxx114listIP5FieldSaIS2_EEC2Ev
FN:733,_ZNSt7__cxx114listIP5FieldSaIS2_EED2Ev
FN:851,_ZNSt7__cxx114listIP5FieldSaIS2_EE5beginEv
FN:869,_ZNSt7__cxx114listIP5FieldSaIS2_EE3endEv
FN:1117,_ZNSt7__cxx114listIP5FieldSaIS2_EE9push_backERKS2_
FN:1799,_ZNSt7__cxx114listIP5FieldSaIS2_EE9_M_insertIJRKS2_EEEvSt14_List_iteratorIS2_EDpOT_
FNDA:0,_ZNSt10_List_nodeImE9_M_valptrEv
FNDA:0,_ZNSt10_List_nodeIP5FieldE9_M_valptrEv
FNDA:0,_ZNSt14_List_iteratorIP5FieldEC2EPNSt8__detail15_List_node_baseE
FNDA:0,_ZNKSt14_List_iteratorIP5FieldEdeEv
FNDA:0,_ZNSt14_List_iteratorIP5FieldEppEv
FNDA:0,_ZNKSt14_List_iteratorIP5FieldEneERKS2_
FNDA:0,_ZNSt7__cxx1110_List_baseIP5FieldSaIS2_EE10_List_implD2Ev
FNDA:0,_ZNSt7__cxx1110_List_baseIP5FieldSaIS2_EE10_List_implC2Ev
FNDA:0,_ZNSt7__cxx1110_List_baseIP5FieldSaIS2_EE11_M_set_sizeEm
FNDA:0,_ZNSt7__cxx1110_List_baseIP5FieldSaIS2_EE11_M_inc_sizeEm
FNDA:0,_ZNSt7__cxx1110_List_baseIP5FieldSaIS2_EE11_M_get_nodeEv
FNDA:0,_ZNSt7__cxx1110_List_baseIP5FieldSaIS2_EE11_M_put_nodeEPSt10_List_nodeIS2_E
FNDA:0,_ZNSt7__cxx1110_List_baseIP5FieldSaIS2_EE21_M_get_Node_allocatorEv
FNDA:0,_ZNSt7__cxx1110_List_baseIP5FieldSaIS2_EEC2Ev
FNDA:0,_ZNSt7__cxx1110_List_baseIP5FieldSaIS2_EED2Ev
FNDA:0,_ZNSt7__cxx1110_List_baseIP5FieldSaIS2_EE7_M_initEv
FNDA:0,_ZNSt7__cxx114listIP5FieldSaIS2_EE14_M_create_nodeIJRKS2_EEEPSt10_List_nodeIS2_EDpOT_
FNDA:0,_ZNSt7__cxx114listIP5FieldSaIS2_EEC2Ev
FNDA:0,_ZNSt7__cxx114listIP5FieldSaIS2_EED2Ev
FNDA:0,_ZNSt7__cxx114listIP5FieldSaIS2_EE5beginEv
FNDA:0,_ZNSt7__cxx114listIP5FieldSaIS2_EE3endEv
FNDA:0,_ZNSt7__cxx114listIP5FieldSaIS2_EE9push_backERKS2_
FNDA:0,_ZNSt7__cxx114listIP5FieldSaIS2_EE9_M_insertIJRKS2_EEEvSt14_List_iteratorIS2_EDpOT_
FNF:23
FNH:0
DA:113,0
DA:143,0
DA:144,0
DA:152,0
DA:153,0
DA:160,0
DA:162,0
DA:163,0
DA:194,0
DA:195,0
DA:323,0
DA:332,0
DA:333,0
DA:334,0
DA:352,0
DA:354,0
DA:382,0
DA:383,0
DA:386,0
DA:387,0
DA:393,0
DA:394,0
DA:400,0
DA:401,0
DA:402,0
DA:441,0
DA:442,0
DA:448,0
DA:450,0
DA:451,0
DA:452,0
DA:453,0
DA:570,0
DA:572,0
DA:573,0
DA:574,0
DA:575,0
DA:577,0
DA:578,0
DA:589,0
DA:593,0
DA:733,0
DA:851,0
DA:852,0
DA:869,0
DA:870,0
DA:1117,0
DA:1118,0
DA:1799,0
DA:1801,0
DA:1802,0
DA:1803,0
DA:1804,0
LF:53
LH:0
end_of_record
SF:/usr/include/c++/7/ext/aligned_buffer.h
FN:62,_ZN9__gnu_cxx16__aligned_membufIP5FieldE7_M_addrEv
FN:62,_ZN9__gnu_cxx16__aligned_membufImE7_M_addrEv
FN:70,_ZN9__gnu_cxx16__aligned_membufIP5FieldE6_M_ptrEv
FN:70,_ZN9__gnu_cxx16__aligned_membufImE6_M_ptrEv
FNDA:0,_ZN9__gnu_cxx16__aligned_membufImE7_M_addrEv
FNDA:0,_ZN9__gnu_cxx16__aligned_membufIP5FieldE7_M_addrEv
FNDA:0,_ZN9__gnu_cxx16__aligned_membufImE6_M_ptrEv
FNDA:0,_ZN9__gnu_cxx16__aligned_membufIP5FieldE6_M_ptrEv
FNF:4
FNH:0
DA:62,0
DA:63,0
DA:70,0
DA:71,0
LF:4
LH:0
end_of_record
SF:/usr/include/c++/7/ext/new_allocator.h
FN:79,_ZN9__gnu_cxx13new_allocatorISt10_List_nodeIP5FieldEEC2Ev
FN:86,_ZN9__gnu_cxx13new_allocatorISt10_List_nodeIP5FieldEED2Ev
FN:99,_ZN9__gnu_cxx13new_allocatorISt10_List_nodeIP5FieldEE8allocateEmPKv
FN:116,_ZN9__gnu_cxx13new_allocatorISt10_List_nodeIP5FieldEE10deallocateEPS4_m
FN:129,_ZNK9__gnu_cxx13new_allocatorISt10_List_nodeIP5FieldEE8max_sizeEv
FN:135,_ZN9__gnu_cxx13new_allocatorISt10_List_nodeIP5FieldEE9constructIS3_JRKS3_EEEvPT_DpOT0_
FN:140,_ZN9__gnu_cxx13new_allocatorISt10_List_nodeIP5FieldEE7destroyIS3_EEvPT_
FNDA:0,_ZN9__gnu_cxx13new_allocatorISt10_List_nodeIP5FieldEEC2Ev
FNDA:0,_ZN9__gnu_cxx13new_allocatorISt10_List_nodeIP5FieldEED2Ev
FNDA:0,_ZN9__gnu_cxx13new_allocatorISt10_List_nodeIP5FieldEE8allocateEmPKv
FNDA:0,_ZN9__gnu_cxx13new_allocatorISt10_List_nodeIP5FieldEE10deallocateEPS4_m
FNDA:0,_ZNK9__gnu_cxx13new_allocatorISt10_List_nodeIP5FieldEE8max_sizeEv
FNDA:0,_ZN9__gnu_cxx13new_allocatorISt10_List_nodeIP5FieldEE9constructIS3_JRKS3_EEEvPT_DpOT0_
FNDA:0,_ZN9__gnu_cxx13new_allocatorISt10_List_nodeIP5FieldEE7destroyIS3_EEvPT_
FNF:7
FNH:0
DA:79,0
DA:86,0
DA:99,0
DA:101,0
DA:102,0
DA:111,0
DA:116,0
DA:125,0
DA:126,0
DA:129,0
DA:130,0
DA:135,0
DA:136,0
DA:140,0
LF:14
LH:0
end_of_record
SF:/usr/include/c++/7/iostream
DA:74,1
LF:1
LH:1
end_of_record
SF:/usr/include/c++/7/new
FN:168,_ZnwmPv
FNDA:0,_ZnwmPv
FNF:1
FNH:0
DA:168,0
DA:169,0
LF:2
LH:0
end_of_record
SF:/home/mentathiel/Documents/Faks/IV/azrs/RGChess/RG136-chess/Rook.cc
FN:5,_ZN4RookC2E11PlayerColorii
FN:7,_ZN4RookC2E11PlayerColorP5Field
FN:12,_ZN4Rook16getPlayableMovesB5cxx11E10Chessboard
FN:82,_ZN4Rook12checkIfLegalE5Field10Chessboard
FN:102,_ZN4Rook10movedPieceE11PlayerColorP5Field
FN:109,_ZNK4Rook8toStringB5cxx11Ev
FN:117,_ZN4Rook7displayEii
FN:130,_Z41__static_initialization_and_destruction_0ii
FN:130,_GLOBAL__sub_I__ZN4RookC2E11PlayerColorii
FNDA:4,_ZN4RookC2E11PlayerColorii
FNDA:0,_ZN4RookC2E11PlayerColorP5Field
FNDA:52,_ZN4Rook16getPlayableMovesB5cxx11E10Chessboard
FNDA:0,_ZN4Rook12checkIfLegalE5Field10Chessboard
FNDA:0,_ZN4Rook10movedPieceE11PlayerColorP5Field
FNDA:0,_ZNK4Rook8toStringB5cxx11Ev
FNDA:704,_ZN4Rook7displayEii
FNDA:1,_GLOBAL__sub_I__ZN4RookC2E11PlayerColorii
FNDA:1,_Z41__static_initialization_and_destruction_0ii
FNF:9
FNH:5
DA:5,4
DA:7,0
DA:12,52
DA:15,52
DA:26,58
DA:27,32
DA:28,32
DA:29,26
DA:30,26
DA:32,6
DA:33,0
DA:34,0
DA:36,6
DA:39,52
DA:40,26
DA:41,26
DA:42,26
DA:43,26
DA:45,0
DA:46,0
DA:47,0
DA:49,0
DA:53,80
DA:54,54
DA:55,54
DA:56,26
DA:57,26
DA:59,28
DA:60,0
DA:61,0
DA:63,28
DA:66,74
DA:67,48
DA:68,48
DA:69,26
DA:70,26
DA:72,22
DA:73,0
DA:74,0
DA:76,22
DA:79,52
DA:82,0
DA:87,0
DA:88,0
DA:89,0
DA:90,0
DA:91,0
DA:93,0
DA:95,0
DA:102,0
DA:103,0
DA:109,0
DA:110,0
DA:111,0
DA:117,704
DA:118,704
DA:119,704
DA:120,704
DA:121,352
DA:124,352
DA:127,704
DA:128,704
DA:129,704
DA:130,707
LF:64
LH:40
end_of_record
SF:/home/mentathiel/Documents/Faks/IV/azrs/RGChess/RG136-chess/chess.hpp
FN:105,_ZN5FieldC2Eii
FN:184,_ZN10ChessboardC2ERKS_
FNDA:0,_ZN5FieldC2Eii
FNDA:0,_ZN10ChessboardC2ERKS_
FNF:2
FNH:0
DA:105,0
DA:184,0
LF:2
LH:0
end_of_record
TN:
SF:/usr/include/c++/7/bits/alloc_traits.h
FN:461,_ZNSt16allocator_traitsISaISt10_List_nodeIP4MoveEEE10deallocateERS4_PS3_m
FN:486,_ZNSt16allocator_traitsISaISt10_List_nodeIP4MoveEEE7destroyIS2_EEvRS4_PT_
FNDA:0,_ZNSt16allocator_traitsISaISt10_List_nodeIP4MoveEEE10deallocateERS4_PS3_m
FNDA:0,_ZNSt16allocator_traitsISaISt10_List_nodeIP4MoveEEE7destroyIS2_EEvRS4_PT_
FNF:2
FNH:0
DA:461,0
DA:462,0
DA:486,0
DA:487,0
LF:4
LH:0
end_of_record
SF:/usr/include/c++/7/bits/allocator.h
FN:139,_ZNSaISt10_List_nodeIP4MoveEED2Ev
FNDA:0,_ZNSaISt10_List_nodeIP4MoveEED2Ev
FNF:1
FNH:0
DA:139,0
LF:1
LH:0
end_of_record
SF:/usr/include/c++/7/bits/list.tcc
FN:65,_ZNSt7__cxx1110_List_baseIP4MoveSaIS2_EE8_M_clearEv
FNDA:0,_ZNSt7__cxx1110_List_baseIP4MoveSaIS2_EE8_M_clearEv
FNF:1
FNH:0
DA:65,0
DA:69,0
DA:70,0
DA:72,0
DA:73,0
DA:74,0
DA:76,0
DA:80,0
DA:82,0
LF:9
LH:0
end_of_record
SF:/usr/include/c++/7/bits/stl_list.h
FN:113,_ZNSt10_List_nodeIP4MoveE9_M_valptrEv
FN:323,_ZNSt7__cxx1110_List_baseIP4MoveSaIS2_EE10_List_implD2Ev
FN:386,_ZNSt7__cxx1110_List_baseIP4MoveSaIS2_EE11_M_put_nodeEPSt10_List_nodeIS2_E
FN:393,_ZNSt7__cxx1110_List_baseIP4MoveSaIS2_EE21_M_get_Node_allocatorEv
FN:441,_ZNSt7__cxx1110_List_baseIP4MoveSaIS2_EED2Ev
FN:733,_ZNSt7__cxx114listIP4MoveSaIS2_EED2Ev
FNDA:13,_ZNSt10_List_nodeIP4MoveE9_M_valptrEv
FNDA:0,_ZNSt7__cxx1110_List_baseIP4MoveSaIS2_EE10_List_implD2Ev
FNDA:0,_ZNSt7__cxx1110_List_baseIP4MoveSaIS2_EE11_M_put_nodeEPSt10_List_nodeIS2_E
FNDA:13,_ZNSt7__cxx1110_List_baseIP4MoveSaIS2_EE21_M_get_Node_allocatorEv
FNDA:0,_ZNSt7__cxx1110_List_baseIP4MoveSaIS2_EED2Ev
FNDA:0,_ZNSt7__cxx114listIP4MoveSaIS2_EED2Ev
FNF:6
FNH:2
DA:113,13
DA:323,0
DA:386,0
DA:387,0
DA:393,13
DA:394,13
DA:441,0
DA:442,0
DA:733,0
LF:9
LH:3
end_of_record
SF:/usr/include/c++/7/ext/aligned_buffer.h
FN:62,_ZN9__gnu_cxx16__aligned_membufIP4MoveE7_M_addrEv
FN:70,_ZN9__gnu_cxx16__aligned_membufIP4MoveE6_M_ptrEv
FNDA:13,_ZN9__gnu_cxx16__aligned_membufIP4MoveE7_M_addrEv
FNDA:13,_ZN9__gnu_cxx16__aligned_membufIP4MoveE6_M_ptrEv
FNF:2
FNH:2
DA:62,13
DA:63,13
DA:70,13
DA:71,13
LF:4
LH:4
end_of_record
SF:/usr/include/c++/7/ext/new_allocator.h
FN:86,_ZN9__gnu_cxx13new_allocatorISt10_List_nodeIP4MoveEED2Ev
FN:116,_ZN9__gnu_cxx13new_allocatorISt10_List_nodeIP4MoveEE10deallocateEPS4_m
FN:140,_ZN9__gnu_cxx13new_allocatorISt10_List_nodeIP4MoveEE7destroyIS3_EEvPT_
FNDA:0,_ZN9__gnu_cxx13new_allocatorISt10_List_nodeIP4MoveEED2Ev
FNDA:0,_ZN9__gnu_cxx13new_allocatorISt10_List_nodeIP4MoveEE10deallocateEPS4_m
FNDA:0,_ZN9__gnu_cxx13new_allocatorISt10_List_nodeIP4MoveEE7destroyIS3_EEvPT_
FNF:3
FNH:0
DA:86,0
DA:116,0
DA:125,0
DA:126,0
DA:140,0
LF:5
LH:0
end_of_record
SF:/usr/include/c++/7/iostream
DA:74,1
LF:1
LH:1
end_of_record
SF:/home/mentathiel/Documents/Faks/IV/azrs/RGChess/RG136-chess/chess.hpp
FN:65,_ZN4GameD2Ev
FN:105,_ZN5FieldC2Eii
FNDA:0,_ZN4GameD2Ev
FNDA:0,_ZN5FieldC2Eii
FNF:2
FNH:0
DA:65,0
DA:105,0
LF:2
LH:0
end_of_record
SF:/home/mentathiel/Documents/Faks/IV/azrs/RGChess/RG136-chess/main.cc
FN:18,main
FN:66,_ZL9onDisplayv
FN:99,_ZL10onKeyboardhii
FN:137,_ZL12onSpecialKeyiii
FN:170,_ZL9onReshapeii
FN:174,_GLOBAL__sub_I_game
FN:174,_Z41__static_initialization_and_destruction_0ii
FNDA:1,main
FNDA:176,_ZL9onDisplayv
FNDA:34,_ZL10onKeyboardhii
FNDA:140,_ZL12onSpecialKeyiii
FNDA:1,_ZL9onReshapeii
FNDA:1,_GLOBAL__sub_I_game
FNDA:1,_Z41__static_initialization_and_destruction_0ii
FNF:7
FNH:7
DA:18,1
DA:21,1
DA:24,1
DA:25,1
DA:26,1
DA:27,1
DA:28,1
DA:31,1
DA:32,1
DA:33,1
DA:36,1
DA:37,1
DA:38,1
DA:39,1
DA:42,1
DA:45,1
DA:46,1
DA:47,1
DA:49,1
DA:51,1
DA:52,1
DA:53,1
DA:54,1
DA:55,1
DA:56,1
DA:57,1
DA:61,1
DA:63,0
DA:66,176
DA:69,176
DA:72,176
DA:75,176
DA:76,176
DA:77,176
DA:79,176
DA:81,176
DA:82,176
DA:83,176
DA:85,176
DA:92,176
DA:96,176
DA:97,176
DA:99,34
DA:103,34
DA:104,0
DA:105,0
DA:109,34
DA:111,34
DA:114,34
DA:115,17
DA:116,17
DA:117,17
DA:119,17
DA:123,17
DA:125,34
DA:127,0
DA:128,0
DA:134,34
DA:135,34
DA:137,140
DA:140,140
DA:141,0
DA:144,140
DA:145,30
DA:146,30
DA:147,30
DA:148,30
DA:149,26
DA:150,26
DA:151,26
DA:152,26
DA:153,43
DA:154,43
DA:155,43
DA:156,43
DA:157,41
DA:158,41
DA:159,41
DA:160,41
DA:165,140
DA:170,1
DA:171,1
DA:172,1
DA:173,1
DA:174,4
LF:85
LH:79
end_of_record
TN:
SF:/usr/include/c++/7/bits/allocator.h
FN:131,_ZNSaISt10_List_nodeIP5FieldEEC2Ev
FNDA:0,_ZNSaISt10_List_nodeIP5FieldEEC2Ev
FNF:1
FNH:0
DA:131,0
LF:1
LH:0
end_of_record
SF:/usr/include/c++/7/bits/stl_list.h
FN:113,_ZNSt10_List_nodeImE9_M_valptrEv
FN:332,_ZNSt7__cxx1110_List_baseIP5FieldSaIS2_EE10_List_implC2Ev
FN:352,_ZNSt7__cxx1110_List_baseIP5FieldSaIS2_EE11_M_set_sizeEm
FN:400,_ZNSt7__cxx1110_List_baseIP5FieldSaIS2_EEC2Ev
FN:448,_ZNSt7__cxx1110_List_baseIP5FieldSaIS2_EE7_M_initEv
FN:589,_ZNSt7__cxx114listIP5FieldSaIS2_EEC2Ev
FNDA:0,_ZNSt10_List_nodeImE9_M_valptrEv
FNDA:0,_ZNSt7__cxx1110_List_baseIP5FieldSaIS2_EE10_List_implC2Ev
FNDA:0,_ZNSt7__cxx1110_List_baseIP5FieldSaIS2_EE11_M_set_sizeEm
FNDA:0,_ZNSt7__cxx1110_List_baseIP5FieldSaIS2_EEC2Ev
FNDA:0,_ZNSt7__cxx1110_List_baseIP5FieldSaIS2_EE7_M_initEv
FNDA:0,_ZNSt7__cxx114listIP5FieldSaIS2_EEC2Ev
FNF:6
FNH:0
DA:113,0
DA:332,0
DA:333,0
DA:334,0
DA:352,0
DA:400,0
DA:401,0
DA:402,0
DA:448,0
DA:450,0
DA:451,0
DA:452,0
DA:453,0
DA:589,0
DA:593,0
LF:15
LH:0
end_of_record
SF:/usr/include/c++/7/ext/aligned_buffer.h
FN:62,_ZN9__gnu_cxx16__aligned_membufImE7_M_addrEv
FN:70,_ZN9__gnu_cxx16__aligned_membufImE6_M_ptrEv
FNDA:0,_ZN9__gnu_cxx16__aligned_membufImE7_M_addrEv
FNDA:0,_ZN9__gnu_cxx16__aligned_membufImE6_M_ptrEv
FNF:2
FNH:0
DA:62,0
DA:63,0
DA:70,0
DA:71,0
LF:4
LH:0
end_of_record
SF:/usr/include/c++/7/ext/new_allocator.h
FN:79,_ZN9__gnu_cxx13new_allocatorISt10_List_nodeIP5FieldEEC2Ev
FNDA:0,_ZN9__gnu_cxx13new_allocatorISt10_List_nodeIP5FieldEEC2Ev
FNF:1
FNH:0
DA:79,0
LF:1
LH:0
end_of_record
SF:/usr/include/c++/7/iostream
DA:74,1
LF:1
LH:1
end_of_record
SF:/usr/include/c++/7/typeinfo
FN:120,_ZNKSt9type_infoeqERKS_
FNDA:0,_ZNKSt9type_infoeqERKS_
FNF:1
FNH:0
DA:120,0
DA:122,0
DA:123,0
DA:124,0
LF:4
LH:0
end_of_record
SF:/home/mentathiel/Documents/Faks/IV/azrs/RGChess/RG136-chess/ChessPiece.cc
FN:8,_ZN10ChessPieceC2Ev
FN:10,_ZN10ChessPieceC2E11PlayerColorii
FN:14,_ZN10ChessPieceC2E11PlayerColorP5Field
FN:20,_ZN10ChessPiece20friendlyPieceOnFieldE5Field10Chessboard
FN:35,_ZN10ChessPiece17enemyPieceOnFieldE5Field10Chessboard
FN:50,_ZN10ChessPiece23fieldAttackedOrOccupiedE5Field10Chessboard
FN:75,_ZN10ChessPiece10movedPieceE11PlayerColorP5Field
FN:79,_ZN10ChessPiece16getPlayableMovesB5cxx11E10Chessboard
FN:84,_ZN10ChessPiece12checkIfLegalE5Field10Chessboard
FN:88,_ZN10ChessPiece12checkIfLegalEP4Move10Chessboard
FN:95,_ZNK10ChessPiece8getColorEv
FN:99,_ZNK10ChessPiece7getNameB5cxx11Ev
FN:106,_ZNK10ChessPiece5printEv
FN:110,_ZNK10ChessPiece8toStringB5cxx11Ev
FN:117,_ZlsRSoRK10ChessPiece
FN:133,_ZN10ChessPiece7displayEii
FN:137,_ZN10ChessPiece7setMatsEv
FN:170,_Z41__static_initialization_and_destruction_0ii
FN:170,_GLOBAL__sub_I__ZN10ChessPieceC2Ev
FNDA:0,_ZN10ChessPieceC2Ev
FNDA:32,_ZN10ChessPieceC2E11PlayerColorii
FNDA:13,_ZN10ChessPieceC2E11PlayerColorP5Field
FNDA:1305,_ZN10ChessPiece20friendlyPieceOnFieldE5Field10Chessboard
FNDA:950,_ZN10ChessPiece17enemyPieceOnFieldE5Field10Chessboard
FNDA:215,_ZN10ChessPiece23fieldAttackedOrOccupiedE5Field10Chessboard
FNDA:0,_ZN10ChessPiece10movedPieceE11PlayerColorP5Field
FNDA:0,_ZN10ChessPiece16getPlayableMovesB5cxx11E10Chessboard
FNDA:0,_ZN10ChessPiece12checkIfLegalE5Field10Chessboard
FNDA:0,_ZN10ChessPiece12checkIfLegalEP4Move10Chessboard
FNDA:23228,_ZNK10ChessPiece8getColorEv
FNDA:0,_ZNK10ChessPiece7getNameB5cxx11Ev
FNDA:0,_ZNK10ChessPiece5printEv
FNDA:0,_ZNK10ChessPiece8toStringB5cxx11Ev
FNDA:0,_ZlsRSoRK10ChessPiece
FNDA:0,_ZN10ChessPiece7displayEii
FNDA:5632,_ZN10ChessPiece7setMatsEv
FNDA:1,_GLOBAL__sub_I__ZN10ChessPieceC2Ev
FNDA:1,_Z41__static_initialization_and_destruction_0ii
FNF:19
FNH:9
DA:8,0
DA:10,32
DA:11,32
DA:12,32
DA:14,13
DA:15,13
DA:20,1305
DA:22,1305
DA:25,647
DA:26,597
DA:28,50
DA:32,658
DA:35,950
DA:37,950
DA:40,119
DA:41,32
DA:43,87
DA:47,831
DA:50,215
DA:53,215
DA:54,160
DA:58,55
DA:59,35
DA:60,0
DA:62,20
DA:63,20
DA:64,0
DA:69,55
DA:75,0
DA:76,0
DA:79,0
DA:80,0
DA:81,0
DA:84,0
DA:85,0
DA:88,0
DA:89,0
DA:90,0
DA:95,23228
DA:96,23228
DA:99,0
DA:100,0
DA:106,0
DA:107,0
DA:108,0
DA:110,0
DA:111,0
DA:117,0
DA:119,0
DA:120,0
DA:122,0
DA:124,0
DA:126,0
DA:128,0
DA:133,0
DA:135,0
DA:137,5632
DA:140,5632
DA:141,2816
DA:142,2816
DA:143,2816
DA:144,2816
DA:147,2816
DA:148,2816
DA:149,2816
DA:150,2816
DA:151,5632
DA:152,2464
DA:153,2112
DA:154,4752
DA:155,1056
DA:156,1056
DA:157,1056
DA:161,5632
DA:162,5632
DA:163,5632
DA:165,5632
DA:166,5632
DA:167,5632
DA:168,5632
DA:170,5635
LF:81
LH:52
end_of_record
SF:/home/mentathiel/Documents/Faks/IV/azrs/RGChess/RG136-chess/chess.hpp
FN:105,_ZN5FieldC2Eii
FN:184,_ZN10ChessboardC2ERKS_
FNDA:0,_ZN5FieldC2Eii
FNDA:0,_ZN10ChessboardC2ERKS_
FNF:2
FNH:0
DA:105,0
DA:184,0
LF:2
LH:0
end_of_record
TN:
SF:/usr/include/c++/7/bits/alloc_traits.h
FN:435,_ZNSt16allocator_traitsISaISt10_List_nodeIP5FieldEEE8allocateERS4_m
FN:461,_ZNSt16allocator_traitsISaISt10_List_nodeIP5FieldEEE10deallocateERS4_PS3_m
FN:474,_ZNSt16allocator_traitsISaISt10_List_nodeIP5FieldEEE9constructIS2_JRKS2_EEEvRS4_PT_DpOT0_
FN:486,_ZNSt16allocator_traitsISaISt10_List_nodeIP5FieldEEE7destroyIS2_EEvRS4_PT_
FNDA:0,_ZNSt16allocator_traitsISaISt10_List_nodeIP5FieldEEE8allocateERS4_m
FNDA:0,_ZNSt16allocator_traitsISaISt10_List_nodeIP5FieldEEE10deallocateERS4_PS3_m
FNDA:0,_ZNSt16allocator_traitsISaISt10_List_nodeIP5FieldEEE9constructIS2_JRKS2_EEEvRS4_PT_DpOT0_
FNDA:0,_ZNSt16allocator_traitsISaISt10_List_nodeIP5FieldEEE7destroyIS2_EEvRS4_PT_
FNF:4
FNH:0
DA:435,0
DA:436,0
DA:461,0
DA:462,0
DA:474,0
DA:475,0
DA:486,0
DA:487,0
LF:8
LH:0
end_of_record
SF:/usr/include/c++/7/bits/allocated_ptr.h
FN:52,_ZNSt15__allocated_ptrISaISt10_List_nodeIP5FieldEEEC2ERS4_PS3_
FN:70,_ZNSt15__allocated_ptrISaISt10_List_nodeIP5FieldEEED2Ev
FN:78,_ZNSt15__allocated_ptrISaISt10_List_nodeIP5FieldEEEaSEDn
FNDA:0,_ZNSt15__allocated_ptrISaISt10_List_nodeIP5FieldEEEC2ERS4_PS3_
FNDA:0,_ZNSt15__allocated_ptrISaISt10_List_nodeIP5FieldEEED2Ev
FNDA:0,_ZNSt15__allocated_ptrISaISt10_List_nodeIP5FieldEEEaSEDn
FNF:3
FNH:0
DA:52,0
DA:53,0
DA:54,0
DA:70,0
DA:72,0
DA:73,0
DA:74,0
DA:78,0
DA:80,0
DA:81,0
LF:10
LH:0
end_of_record
SF:/usr/include/c++/7/bits/allocator.h
FN:131,_ZNSaISt10_List_nodeIP5FieldEEC2Ev
FN:139,_ZNSaISt10_List_nodeIP5FieldEED2Ev
FNDA:0,_ZNSaISt10_List_nodeIP5FieldEEC2Ev
FNDA:0,_ZNSaISt10_List_nodeIP5FieldEED2Ev
FNF:2
FNH:0
DA:131,0
DA:139,0
LF:2
LH:0
end_of_record
SF:/usr/include/c++/7/bits/list.tcc
FN:65,_ZNSt7__cxx1110_List_baseIP5FieldSaIS2_EE8_M_clearEv
FNDA:0,_ZNSt7__cxx1110_List_baseIP5FieldSaIS2_EE8_M_clearEv
FNF:1
FNH:0
DA:65,0
DA:69,0
DA:70,0
DA:72,0
DA:73,0
DA:74,0
DA:76,0
DA:80,0
DA:82,0
LF:9
LH:0
end_of_record
SF:/usr/include/c++/7/bits/move.h
FN:47,_ZSt11__addressofISaISt10_List_nodeIP5FieldEEEPT_RS5_
FN:73,_ZSt7forwardIRKP5FieldEOT_RNSt16remove_referenceIS4_E4typeE
FNDA:0,_ZSt11__addressofISaISt10_List_nodeIP5FieldEEEPT_RS5_
FNDA:0,_ZSt7forwardIRKP5FieldEOT_RNSt16remove_referenceIS4_E4typeE
FNF:2
FNH:0
DA:47,0
DA:48,0
DA:73,0
DA:74,0
LF:4
LH:0
end_of_record
SF:/usr/include/c++/7/bits/stl_list.h
FN:113,_ZNSt10_List_nodeImE9_M_valptrEv
FN:113,_ZNSt10_List_nodeIP5FieldE9_M_valptrEv
FN:143,_ZNSt14_List_iteratorIP5FieldEC2EPNSt8__detail15_List_node_baseE
FN:323,_ZNSt7__cxx1110_List_baseIP5FieldSaIS2_EE10_List_implD2Ev
FN:332,_ZNSt7__cxx1110_List_baseIP5FieldSaIS2_EE10_List_implC2Ev
FN:352,_ZNSt7__cxx1110_List_baseIP5FieldSaIS2_EE11_M_set_sizeEm
FN:354,_ZNSt7__cxx1110_List_baseIP5FieldSaIS2_EE11_M_inc_sizeEm
FN:382,_ZNSt7__cxx1110_List_baseIP5FieldSaIS2_EE11_M_get_nodeEv
FN:386,_ZNSt7__cxx1110_List_baseIP5FieldSaIS2_EE11_M_put_nodeEPSt10_List_nodeIS2_E
FN:393,_ZNSt7__cxx1110_List_baseIP5FieldSaIS2_EE21_M_get_Node_allocatorEv
FN:400,_ZNSt7__cxx1110_List_baseIP5FieldSaIS2_EEC2Ev
FN:441,_ZNSt7__cxx1110_List_baseIP5FieldSaIS2_EED2Ev
FN:448,_ZNSt7__cxx1110_List_baseIP5FieldSaIS2_EE7_M_initEv
FN:570,_ZNSt7__cxx114listIP5FieldSaIS2_EE14_M_create_nodeIJRKS2_EEEPSt10_List_nodeIS2_EDpOT_
FN:589,_ZNSt7__cxx114listIP5FieldSaIS2_EEC2Ev
FN:733,_ZNSt7__cxx114listIP5FieldSaIS2_EED2Ev
FN:869,_ZNSt7__cxx114listIP5FieldSaIS2_EE3endEv
FN:1117,_ZNSt7__cxx114listIP5FieldSaIS2_EE9push_backERKS2_
FN:1799,_ZNSt7__cxx114listIP5FieldSaIS2_EE9_M_insertIJRKS2_EEEvSt14_List_iteratorIS2_EDpOT_
FNDA:0,_ZNSt10_List_nodeImE9_M_valptrEv
FNDA:0,_ZNSt10_List_nodeIP5FieldE9_M_valptrEv
FNDA:0,_ZNSt14_List_iteratorIP5FieldEC2EPNSt8__detail15_List_node_baseE
FNDA:0,_ZNSt7__cxx1110_List_baseIP5FieldSaIS2_EE10_List_implD2Ev
FNDA:0,_ZNSt7__cxx1110_List_baseIP5FieldSaIS2_EE10_List_implC2Ev
FNDA:0,_ZNSt7__cxx1110_List_baseIP5FieldSaIS2_EE11_M_set_sizeEm
FNDA:0,_ZNSt7__cxx1110_List_baseIP5FieldSaIS2_EE11_M_inc_sizeEm
FNDA:0,_ZNSt7__cxx1110_List_baseIP5FieldSaIS2_EE11_M_get_nodeEv
FNDA:0,_ZNSt7__cxx1110_List_baseIP5FieldSaIS2_EE11_M_put_nodeEPSt10_List_nodeIS2_E
FNDA:0,_ZNSt7__cxx1110_List_baseIP5FieldSaIS2_EE21_M_get_Node_allocatorEv
FNDA:0,_ZNSt7__cxx1110_List_baseIP5FieldSaIS2_EEC2Ev
FNDA:0,_ZNSt7__cxx1110_List_baseIP5FieldSaIS2_EED2Ev
FNDA:0,_ZNSt7__cxx1110_List_baseIP5FieldSaIS2_EE7_M_initEv
FNDA:0,_ZNSt7__cxx114listIP5FieldSaIS2_EE14_M_create_nodeIJRKS2_EEEPSt10_List_nodeIS2_EDpOT_
FNDA:0,_ZNSt7__cxx114listIP5FieldSaIS2_EEC2Ev
FNDA:0,_ZNSt7__cxx114listIP5FieldSaIS2_EED2Ev
FNDA:0,_ZNSt7__cxx114listIP5FieldSaIS2_EE3endEv
FNDA:0,_ZNSt7__cxx114listIP5FieldSaIS2_EE9push_backERKS2_
FNDA:0,_ZNSt7__cxx114listIP5FieldSaIS2_EE9_M_insertIJRKS2_EEEvSt14_List_iteratorIS2_EDpOT_
FNF:19
FNH:0
DA:113,0
DA:143,0
DA:144,0
DA:323,0
DA:332,0
DA:333,0
DA:334,0
DA:352,0
DA:354,0
DA:382,0
DA:383,0
DA:386,0
DA:387,0
DA:393,0
DA:394,0
DA:400,0
DA:401,0
DA:402,0
DA:441,0
DA:442,0
DA:448,0
DA:450,0
DA:451,0
DA:452,0
DA:453,0
DA:570,0
DA:572,0
DA:573,0
DA:574,0
DA:575,0
DA:577,0
DA:578,0
DA:589,0
DA:593,0
DA:733,0
DA:869,0
DA:870,0
DA:1117,0
DA:1118,0
DA:1799,0
DA:1801,0
DA:1802,0
DA:1803,0
DA:1804,0
LF:44
LH:0
end_of_record
SF:/usr/include/c++/7/ext/aligned_buffer.h
FN:62,_ZN9__gnu_cxx16__aligned_membufIP5FieldE7_M_addrEv
FN:62,_ZN9__gnu_cxx16__aligned_membufImE7_M_addrEv
FN:70,_ZN9__gnu_cxx16__aligned_membufIP5FieldE6_M_ptrEv
FN:70,_ZN9__gnu_cxx16__aligned_membufImE6_M_ptrEv
FNDA:0,_ZN9__gnu_cxx16__aligned_membufImE7_M_addrEv
FNDA:0,_ZN9__gnu_cxx16__aligned_membufIP5FieldE7_M_addrEv
FNDA:0,_ZN9__gnu_cxx16__aligned_membufImE6_M_ptrEv
FNDA:0,_ZN9__gnu_cxx16__aligned_membufIP5FieldE6_M_ptrEv
FNF:4
FNH:0
DA:62,0
DA:63,0
DA:70,0
DA:71,0
LF:4
LH:0
end_of_record
SF:/usr/include/c++/7/ext/new_allocator.h
FN:79,_ZN9__gnu_cxx13new_allocatorISt10_List_nodeIP5FieldEEC2Ev
FN:86,_ZN9__gnu_cxx13new_allocatorISt10_List_nodeIP5FieldEED2Ev
FN:99,_ZN9__gnu_cxx13new_allocatorISt10_List_nodeIP5FieldEE8allocateEmPKv
FN:116,_ZN9__gnu_cxx13new_allocatorISt10_List_nodeIP5FieldEE10deallocateEPS4_m
FN:129,_ZNK9__gnu_cxx13new_allocatorISt10_List_nodeIP5FieldEE8max_sizeEv
FN:135,_ZN9__gnu_cxx13new_allocatorISt10_List_nodeIP5FieldEE9constructIS3_JRKS3_EEEvPT_DpOT0_
FN:140,_ZN9__gnu_cxx13new_allocatorISt10_List_nodeIP5FieldEE7destroyIS3_EEvPT_
FNDA:0,_ZN9__gnu_cxx13new_allocatorISt10_List_nodeIP5FieldEEC2Ev
FNDA:0,_ZN9__gnu_cxx13new_allocatorISt10_List_nodeIP5FieldEED2Ev
FNDA:0,_ZN9__gnu_cxx13new_allocatorISt10_List_nodeIP5FieldEE8allocateEmPKv
FNDA:0,_ZN9__gnu_cxx13new_allocatorISt10_List_nodeIP5FieldEE10deallocateEPS4_m
FNDA:0,_ZNK9__gnu_cxx13new_allocatorISt10_List_nodeIP5FieldEE8max_sizeEv
FNDA:0,_ZN9__gnu_cxx13new_allocatorISt10_List_nodeIP5FieldEE9constructIS3_JRKS3_EEEvPT_DpOT0_
FNDA:0,_ZN9__gnu_cxx13new_allocatorISt10_List_nodeIP5FieldEE7destroyIS3_EEvPT_
FNF:7
FNH:0
DA:79,0
DA:86,0
DA:99,0
DA:101,0
DA:102,0
DA:111,0
DA:116,0
DA:125,0
DA:126,0
DA:129,0
DA:130,0
DA:135,0
DA:136,0
DA:140,0
LF:14
LH:0
end_of_record
SF:/usr/include/c++/7/iostream
DA:74,1
LF:1
LH:1
end_of_record
SF:/usr/include/c++/7/new
FN:168,_ZnwmPv
FNDA:0,_ZnwmPv
FNF:1
FNH:0
DA:168,0
DA:169,0
LF:2
LH:0
end_of_record
SF:/home/mentathiel/Documents/Faks/IV/azrs/RGChess/RG136-chess/Pawn.cc
FN:5,_ZN4PawnC2E11PlayerColorii
FN:7,_ZN4PawnC2E11PlayerColorP5Field
FN:11,_ZN4Pawn16getPlayableMovesB5cxx11E10Chessboard
FN:27,_ZN4Pawn12checkIfLegalE5Field10Chessboard
FN:66,_ZN4Pawn10movedPieceE11PlayerColorP5Field
FN:73,_ZNK4Pawn8toStringB5cxx11Ev
FN:81,_ZN4Pawn7displayEii
FN:100,_GLOBAL__sub_I__ZN4PawnC2E11PlayerColorii
FN:100,_Z41__static_initialization_and_destruction_0ii
FNDA:16,_ZN4PawnC2E11PlayerColorii
FNDA:5,_ZN4PawnC2E11PlayerColorP5Field
FNDA:208,_ZN4Pawn16getPlayableMovesB5cxx11E10Chessboard
FNDA:13317,_ZN4Pawn12checkIfLegalE5Field10Chessboard
FNDA:5,_ZN4Pawn10movedPieceE11PlayerColorP5Field
FNDA:0,_ZNK4Pawn8toStringB5cxx11Ev
FNDA:2816,_ZN4Pawn7displayEii
FNDA:1,_GLOBAL__sub_I__ZN4PawnC2E11PlayerColorii
FNDA:1,_Z41__static_initialization_and_destruction_0ii
FNF:9
FNH:8
DA:5,16
DA:7,5
DA:11,208
DA:13,208
DA:15,1872
DA:16,14976
DA:17,13312
DA:18,13312
DA:19,315
DA:21,12997
DA:24,208
DA:27,13317
DA:28,13317
DA:30,13317
DA:31,13317
DA:33,13317
DA:34,6659
DA:35,6659
DA:40,14984
DA:41,13528
DA:43,13171
DA:44,13681
DA:46,13171
DA:47,210
DA:48,13491
DA:50,26634
DA:51,0
DA:52,0
DA:53,0
DA:56,320
DA:58,12997
DA:66,5
DA:67,5
DA:73,0
DA:74,0
DA:75,0
DA:81,2816
DA:82,2816
DA:83,2816
DA:84,2816
DA:85,1408
DA:88,1408
DA:91,2816
DA:92,1408
DA:95,1408
DA:97,2816
DA:98,2816
DA:99,2816
DA:100,2819
LF:49
LH:43
end_of_record
SF:/home/mentathiel/Documents/Faks/IV/azrs/RGChess/RG136-chess/chess.hpp
FN:105,_ZN5FieldC2Eii
FN:184,_ZN10ChessboardC2ERKS_
FNDA:0,_ZN5FieldC2Eii
FNDA:0,_ZN10ChessboardC2ERKS_
FNF:2
FNH:0
DA:105,0
DA:184,0
LF:2
LH:0
end_of_record
